
user/_usertests:     file format elf64-littleriscv


Disassembly of section .text:

0000000000000000 <copyinstr1>:
    close(fds[1]);
  }
}

// what if you pass ridiculous string pointers to system calls?
void copyinstr1(char *s) {
       0:	7139                	addi	sp,sp,-64
       2:	fc06                	sd	ra,56(sp)
       4:	f822                	sd	s0,48(sp)
       6:	f426                	sd	s1,40(sp)
       8:	f04a                	sd	s2,32(sp)
       a:	ec4e                	sd	s3,24(sp)
       c:	0080                	addi	s0,sp,64
  uint64 addrs[] = {0x80000000LL, 0xffffffffffffffff};
       e:	4785                	li	a5,1
      10:	07fe                	slli	a5,a5,0x1f
      12:	fcf43023          	sd	a5,-64(s0)
      16:	57fd                	li	a5,-1
      18:	fcf43423          	sd	a5,-56(s0)

  for (int ai = 0; ai < 2; ai++) {
      1c:	fc040493          	addi	s1,s0,-64
    uint64 addr = addrs[ai];

    int fd = open((char *)addr, O_CREATE | O_WRONLY);
      20:	20100993          	li	s3,513
    uint64 addr = addrs[ai];
      24:	0004b903          	ld	s2,0(s1)
    int fd = open((char *)addr, O_CREATE | O_WRONLY);
      28:	85ce                	mv	a1,s3
      2a:	854a                	mv	a0,s2
      2c:	00006097          	auipc	ra,0x6
      30:	b28080e7          	jalr	-1240(ra) # 5b54 <open>
    if (fd >= 0) {
      34:	00055e63          	bgez	a0,50 <copyinstr1+0x50>
  for (int ai = 0; ai < 2; ai++) {
      38:	04a1                	addi	s1,s1,8
      3a:	fd040793          	addi	a5,s0,-48
      3e:	fef493e3          	bne	s1,a5,24 <copyinstr1+0x24>
      printf("open(%p) returned %d, not -1\n", addr, fd);
      exit(1);
    }
  }
}
      42:	70e2                	ld	ra,56(sp)
      44:	7442                	ld	s0,48(sp)
      46:	74a2                	ld	s1,40(sp)
      48:	7902                	ld	s2,32(sp)
      4a:	69e2                	ld	s3,24(sp)
      4c:	6121                	addi	sp,sp,64
      4e:	8082                	ret
      printf("open(%p) returned %d, not -1\n", addr, fd);
      50:	862a                	mv	a2,a0
      52:	85ca                	mv	a1,s2
      54:	00006517          	auipc	a0,0x6
      58:	fe450513          	addi	a0,a0,-28 # 6038 <malloc+0xfa>
      5c:	00006097          	auipc	ra,0x6
      60:	e26080e7          	jalr	-474(ra) # 5e82 <printf>
      exit(1);
      64:	4505                	li	a0,1
      66:	00006097          	auipc	ra,0x6
      6a:	aae080e7          	jalr	-1362(ra) # 5b14 <exit>

000000000000006e <bsstest>:
// does uninitialized data start out zero?
char uninit[10000];
void bsstest(char *s) {
  int i;

  for (i = 0; i < sizeof(uninit); i++) {
      6e:	0000b797          	auipc	a5,0xb
      72:	cda78793          	addi	a5,a5,-806 # ad48 <uninit>
      76:	0000d697          	auipc	a3,0xd
      7a:	3e268693          	addi	a3,a3,994 # d458 <buf>
    if (uninit[i] != '\0') {
      7e:	0007c703          	lbu	a4,0(a5)
      82:	e709                	bnez	a4,8c <bsstest+0x1e>
  for (i = 0; i < sizeof(uninit); i++) {
      84:	0785                	addi	a5,a5,1
      86:	fed79ce3          	bne	a5,a3,7e <bsstest+0x10>
      8a:	8082                	ret
void bsstest(char *s) {
      8c:	1141                	addi	sp,sp,-16
      8e:	e406                	sd	ra,8(sp)
      90:	e022                	sd	s0,0(sp)
      92:	0800                	addi	s0,sp,16
      printf("%s: bss test failed\n", s);
      94:	85aa                	mv	a1,a0
      96:	00006517          	auipc	a0,0x6
      9a:	fc250513          	addi	a0,a0,-62 # 6058 <malloc+0x11a>
      9e:	00006097          	auipc	ra,0x6
      a2:	de4080e7          	jalr	-540(ra) # 5e82 <printf>
      exit(1);
      a6:	4505                	li	a0,1
      a8:	00006097          	auipc	ra,0x6
      ac:	a6c080e7          	jalr	-1428(ra) # 5b14 <exit>

00000000000000b0 <opentest>:
void opentest(char *s) {
      b0:	1101                	addi	sp,sp,-32
      b2:	ec06                	sd	ra,24(sp)
      b4:	e822                	sd	s0,16(sp)
      b6:	e426                	sd	s1,8(sp)
      b8:	1000                	addi	s0,sp,32
      ba:	84aa                	mv	s1,a0
  fd = open("echo", 0);
      bc:	4581                	li	a1,0
      be:	00006517          	auipc	a0,0x6
      c2:	fb250513          	addi	a0,a0,-78 # 6070 <malloc+0x132>
      c6:	00006097          	auipc	ra,0x6
      ca:	a8e080e7          	jalr	-1394(ra) # 5b54 <open>
  if (fd < 0) {
      ce:	02054663          	bltz	a0,fa <opentest+0x4a>
  close(fd);
      d2:	00006097          	auipc	ra,0x6
      d6:	a6a080e7          	jalr	-1430(ra) # 5b3c <close>
  fd = open("doesnotexist", 0);
      da:	4581                	li	a1,0
      dc:	00006517          	auipc	a0,0x6
      e0:	fb450513          	addi	a0,a0,-76 # 6090 <malloc+0x152>
      e4:	00006097          	auipc	ra,0x6
      e8:	a70080e7          	jalr	-1424(ra) # 5b54 <open>
  if (fd >= 0) {
      ec:	02055563          	bgez	a0,116 <opentest+0x66>
}
      f0:	60e2                	ld	ra,24(sp)
      f2:	6442                	ld	s0,16(sp)
      f4:	64a2                	ld	s1,8(sp)
      f6:	6105                	addi	sp,sp,32
      f8:	8082                	ret
    printf("%s: open echo failed!\n", s);
      fa:	85a6                	mv	a1,s1
      fc:	00006517          	auipc	a0,0x6
     100:	f7c50513          	addi	a0,a0,-132 # 6078 <malloc+0x13a>
     104:	00006097          	auipc	ra,0x6
     108:	d7e080e7          	jalr	-642(ra) # 5e82 <printf>
    exit(1);
     10c:	4505                	li	a0,1
     10e:	00006097          	auipc	ra,0x6
     112:	a06080e7          	jalr	-1530(ra) # 5b14 <exit>
    printf("%s: open doesnotexist succeeded!\n", s);
     116:	85a6                	mv	a1,s1
     118:	00006517          	auipc	a0,0x6
     11c:	f8850513          	addi	a0,a0,-120 # 60a0 <malloc+0x162>
     120:	00006097          	auipc	ra,0x6
     124:	d62080e7          	jalr	-670(ra) # 5e82 <printf>
    exit(1);
     128:	4505                	li	a0,1
     12a:	00006097          	auipc	ra,0x6
     12e:	9ea080e7          	jalr	-1558(ra) # 5b14 <exit>

0000000000000132 <truncate2>:
void truncate2(char *s) {
     132:	7179                	addi	sp,sp,-48
     134:	f406                	sd	ra,40(sp)
     136:	f022                	sd	s0,32(sp)
     138:	ec26                	sd	s1,24(sp)
     13a:	e84a                	sd	s2,16(sp)
     13c:	e44e                	sd	s3,8(sp)
     13e:	1800                	addi	s0,sp,48
     140:	89aa                	mv	s3,a0
  unlink("truncfile");
     142:	00006517          	auipc	a0,0x6
     146:	f8650513          	addi	a0,a0,-122 # 60c8 <malloc+0x18a>
     14a:	00006097          	auipc	ra,0x6
     14e:	a1a080e7          	jalr	-1510(ra) # 5b64 <unlink>
  int fd1 = open("truncfile", O_CREATE | O_TRUNC | O_WRONLY);
     152:	60100593          	li	a1,1537
     156:	00006517          	auipc	a0,0x6
     15a:	f7250513          	addi	a0,a0,-142 # 60c8 <malloc+0x18a>
     15e:	00006097          	auipc	ra,0x6
     162:	9f6080e7          	jalr	-1546(ra) # 5b54 <open>
     166:	84aa                	mv	s1,a0
  write(fd1, "abcd", 4);
     168:	4611                	li	a2,4
     16a:	00006597          	auipc	a1,0x6
     16e:	f6e58593          	addi	a1,a1,-146 # 60d8 <malloc+0x19a>
     172:	00006097          	auipc	ra,0x6
     176:	9c2080e7          	jalr	-1598(ra) # 5b34 <write>
  int fd2 = open("truncfile", O_TRUNC | O_WRONLY);
     17a:	40100593          	li	a1,1025
     17e:	00006517          	auipc	a0,0x6
     182:	f4a50513          	addi	a0,a0,-182 # 60c8 <malloc+0x18a>
     186:	00006097          	auipc	ra,0x6
     18a:	9ce080e7          	jalr	-1586(ra) # 5b54 <open>
     18e:	892a                	mv	s2,a0
  int n = write(fd1, "x", 1);
     190:	4605                	li	a2,1
     192:	00006597          	auipc	a1,0x6
     196:	f4e58593          	addi	a1,a1,-178 # 60e0 <malloc+0x1a2>
     19a:	8526                	mv	a0,s1
     19c:	00006097          	auipc	ra,0x6
     1a0:	998080e7          	jalr	-1640(ra) # 5b34 <write>
  if (n != -1) {
     1a4:	57fd                	li	a5,-1
     1a6:	02f51b63          	bne	a0,a5,1dc <truncate2+0xaa>
  unlink("truncfile");
     1aa:	00006517          	auipc	a0,0x6
     1ae:	f1e50513          	addi	a0,a0,-226 # 60c8 <malloc+0x18a>
     1b2:	00006097          	auipc	ra,0x6
     1b6:	9b2080e7          	jalr	-1614(ra) # 5b64 <unlink>
  close(fd1);
     1ba:	8526                	mv	a0,s1
     1bc:	00006097          	auipc	ra,0x6
     1c0:	980080e7          	jalr	-1664(ra) # 5b3c <close>
  close(fd2);
     1c4:	854a                	mv	a0,s2
     1c6:	00006097          	auipc	ra,0x6
     1ca:	976080e7          	jalr	-1674(ra) # 5b3c <close>
}
     1ce:	70a2                	ld	ra,40(sp)
     1d0:	7402                	ld	s0,32(sp)
     1d2:	64e2                	ld	s1,24(sp)
     1d4:	6942                	ld	s2,16(sp)
     1d6:	69a2                	ld	s3,8(sp)
     1d8:	6145                	addi	sp,sp,48
     1da:	8082                	ret
    printf("%s: write returned %d, expected -1\n", s, n);
     1dc:	862a                	mv	a2,a0
     1de:	85ce                	mv	a1,s3
     1e0:	00006517          	auipc	a0,0x6
     1e4:	f0850513          	addi	a0,a0,-248 # 60e8 <malloc+0x1aa>
     1e8:	00006097          	auipc	ra,0x6
     1ec:	c9a080e7          	jalr	-870(ra) # 5e82 <printf>
    exit(1);
     1f0:	4505                	li	a0,1
     1f2:	00006097          	auipc	ra,0x6
     1f6:	922080e7          	jalr	-1758(ra) # 5b14 <exit>

00000000000001fa <createtest>:
void createtest(char *s) {
     1fa:	7139                	addi	sp,sp,-64
     1fc:	fc06                	sd	ra,56(sp)
     1fe:	f822                	sd	s0,48(sp)
     200:	f426                	sd	s1,40(sp)
     202:	f04a                	sd	s2,32(sp)
     204:	ec4e                	sd	s3,24(sp)
     206:	e852                	sd	s4,16(sp)
     208:	0080                	addi	s0,sp,64
  name[0] = 'a';
     20a:	06100793          	li	a5,97
     20e:	fcf40423          	sb	a5,-56(s0)
  name[2] = '\0';
     212:	fc040523          	sb	zero,-54(s0)
     216:	03000493          	li	s1,48
    fd = open(name, O_CREATE | O_RDWR);
     21a:	fc840a13          	addi	s4,s0,-56
     21e:	20200993          	li	s3,514
  for (i = 0; i < N; i++) {
     222:	06400913          	li	s2,100
    name[1] = '0' + i;
     226:	fc9404a3          	sb	s1,-55(s0)
    fd = open(name, O_CREATE | O_RDWR);
     22a:	85ce                	mv	a1,s3
     22c:	8552                	mv	a0,s4
     22e:	00006097          	auipc	ra,0x6
     232:	926080e7          	jalr	-1754(ra) # 5b54 <open>
    close(fd);
     236:	00006097          	auipc	ra,0x6
     23a:	906080e7          	jalr	-1786(ra) # 5b3c <close>
  for (i = 0; i < N; i++) {
     23e:	2485                	addiw	s1,s1,1
     240:	0ff4f493          	zext.b	s1,s1
     244:	ff2491e3          	bne	s1,s2,226 <createtest+0x2c>
  name[0] = 'a';
     248:	06100793          	li	a5,97
     24c:	fcf40423          	sb	a5,-56(s0)
  name[2] = '\0';
     250:	fc040523          	sb	zero,-54(s0)
     254:	03000493          	li	s1,48
    unlink(name);
     258:	fc840993          	addi	s3,s0,-56
  for (i = 0; i < N; i++) {
     25c:	06400913          	li	s2,100
    name[1] = '0' + i;
     260:	fc9404a3          	sb	s1,-55(s0)
    unlink(name);
     264:	854e                	mv	a0,s3
     266:	00006097          	auipc	ra,0x6
     26a:	8fe080e7          	jalr	-1794(ra) # 5b64 <unlink>
  for (i = 0; i < N; i++) {
     26e:	2485                	addiw	s1,s1,1
     270:	0ff4f493          	zext.b	s1,s1
     274:	ff2496e3          	bne	s1,s2,260 <createtest+0x66>
}
     278:	70e2                	ld	ra,56(sp)
     27a:	7442                	ld	s0,48(sp)
     27c:	74a2                	ld	s1,40(sp)
     27e:	7902                	ld	s2,32(sp)
     280:	69e2                	ld	s3,24(sp)
     282:	6a42                	ld	s4,16(sp)
     284:	6121                	addi	sp,sp,64
     286:	8082                	ret

0000000000000288 <bigwrite>:
void bigwrite(char *s) {
     288:	711d                	addi	sp,sp,-96
     28a:	ec86                	sd	ra,88(sp)
     28c:	e8a2                	sd	s0,80(sp)
     28e:	e4a6                	sd	s1,72(sp)
     290:	e0ca                	sd	s2,64(sp)
     292:	fc4e                	sd	s3,56(sp)
     294:	f852                	sd	s4,48(sp)
     296:	f456                	sd	s5,40(sp)
     298:	f05a                	sd	s6,32(sp)
     29a:	ec5e                	sd	s7,24(sp)
     29c:	e862                	sd	s8,16(sp)
     29e:	e466                	sd	s9,8(sp)
     2a0:	1080                	addi	s0,sp,96
     2a2:	8caa                	mv	s9,a0
  unlink("bigwrite");
     2a4:	00006517          	auipc	a0,0x6
     2a8:	e6c50513          	addi	a0,a0,-404 # 6110 <malloc+0x1d2>
     2ac:	00006097          	auipc	ra,0x6
     2b0:	8b8080e7          	jalr	-1864(ra) # 5b64 <unlink>
  for (sz = 499; sz < (MAXOPBLOCKS + 2) * BSIZE; sz += 471) {
     2b4:	1f300493          	li	s1,499
    fd = open("bigwrite", O_CREATE | O_RDWR);
     2b8:	20200b93          	li	s7,514
     2bc:	00006a17          	auipc	s4,0x6
     2c0:	e54a0a13          	addi	s4,s4,-428 # 6110 <malloc+0x1d2>
     2c4:	4b09                	li	s6,2
      int cc = write(fd, buf, sz);
     2c6:	0000d997          	auipc	s3,0xd
     2ca:	19298993          	addi	s3,s3,402 # d458 <buf>
  for (sz = 499; sz < (MAXOPBLOCKS + 2) * BSIZE; sz += 471) {
     2ce:	6a8d                	lui	s5,0x3
     2d0:	1c9a8a93          	addi	s5,s5,457 # 31c9 <exitiputtest+0xb>
    fd = open("bigwrite", O_CREATE | O_RDWR);
     2d4:	85de                	mv	a1,s7
     2d6:	8552                	mv	a0,s4
     2d8:	00006097          	auipc	ra,0x6
     2dc:	87c080e7          	jalr	-1924(ra) # 5b54 <open>
     2e0:	892a                	mv	s2,a0
    if (fd < 0) {
     2e2:	04054a63          	bltz	a0,336 <bigwrite+0xae>
     2e6:	8c5a                	mv	s8,s6
      int cc = write(fd, buf, sz);
     2e8:	8626                	mv	a2,s1
     2ea:	85ce                	mv	a1,s3
     2ec:	854a                	mv	a0,s2
     2ee:	00006097          	auipc	ra,0x6
     2f2:	846080e7          	jalr	-1978(ra) # 5b34 <write>
      if (cc != sz) {
     2f6:	04951e63          	bne	a0,s1,352 <bigwrite+0xca>
    for (i = 0; i < 2; i++) {
     2fa:	3c7d                	addiw	s8,s8,-1
     2fc:	fe0c16e3          	bnez	s8,2e8 <bigwrite+0x60>
    close(fd);
     300:	854a                	mv	a0,s2
     302:	00006097          	auipc	ra,0x6
     306:	83a080e7          	jalr	-1990(ra) # 5b3c <close>
    unlink("bigwrite");
     30a:	8552                	mv	a0,s4
     30c:	00006097          	auipc	ra,0x6
     310:	858080e7          	jalr	-1960(ra) # 5b64 <unlink>
  for (sz = 499; sz < (MAXOPBLOCKS + 2) * BSIZE; sz += 471) {
     314:	1d74849b          	addiw	s1,s1,471
     318:	fb549ee3          	bne	s1,s5,2d4 <bigwrite+0x4c>
}
     31c:	60e6                	ld	ra,88(sp)
     31e:	6446                	ld	s0,80(sp)
     320:	64a6                	ld	s1,72(sp)
     322:	6906                	ld	s2,64(sp)
     324:	79e2                	ld	s3,56(sp)
     326:	7a42                	ld	s4,48(sp)
     328:	7aa2                	ld	s5,40(sp)
     32a:	7b02                	ld	s6,32(sp)
     32c:	6be2                	ld	s7,24(sp)
     32e:	6c42                	ld	s8,16(sp)
     330:	6ca2                	ld	s9,8(sp)
     332:	6125                	addi	sp,sp,96
     334:	8082                	ret
      printf("%s: cannot create bigwrite\n", s);
     336:	85e6                	mv	a1,s9
     338:	00006517          	auipc	a0,0x6
     33c:	de850513          	addi	a0,a0,-536 # 6120 <malloc+0x1e2>
     340:	00006097          	auipc	ra,0x6
     344:	b42080e7          	jalr	-1214(ra) # 5e82 <printf>
      exit(1);
     348:	4505                	li	a0,1
     34a:	00005097          	auipc	ra,0x5
     34e:	7ca080e7          	jalr	1994(ra) # 5b14 <exit>
        printf("%s: write(%d) ret %d\n", s, sz, cc);
     352:	86aa                	mv	a3,a0
     354:	8626                	mv	a2,s1
     356:	85e6                	mv	a1,s9
     358:	00006517          	auipc	a0,0x6
     35c:	de850513          	addi	a0,a0,-536 # 6140 <malloc+0x202>
     360:	00006097          	auipc	ra,0x6
     364:	b22080e7          	jalr	-1246(ra) # 5e82 <printf>
        exit(1);
     368:	4505                	li	a0,1
     36a:	00005097          	auipc	ra,0x5
     36e:	7aa080e7          	jalr	1962(ra) # 5b14 <exit>

0000000000000372 <copyin>:
void copyin(char *s) {
     372:	7159                	addi	sp,sp,-112
     374:	f486                	sd	ra,104(sp)
     376:	f0a2                	sd	s0,96(sp)
     378:	eca6                	sd	s1,88(sp)
     37a:	e8ca                	sd	s2,80(sp)
     37c:	e4ce                	sd	s3,72(sp)
     37e:	e0d2                	sd	s4,64(sp)
     380:	fc56                	sd	s5,56(sp)
     382:	f85a                	sd	s6,48(sp)
     384:	f45e                	sd	s7,40(sp)
     386:	f062                	sd	s8,32(sp)
     388:	1880                	addi	s0,sp,112
  uint64 addrs[] = {0x80000000LL, 0xffffffffffffffff};
     38a:	4785                	li	a5,1
     38c:	07fe                	slli	a5,a5,0x1f
     38e:	faf43023          	sd	a5,-96(s0)
     392:	57fd                	li	a5,-1
     394:	faf43423          	sd	a5,-88(s0)
  for (int ai = 0; ai < 2; ai++) {
     398:	fa040913          	addi	s2,s0,-96
    int fd = open("copyin1", O_CREATE | O_WRONLY);
     39c:	20100b93          	li	s7,513
     3a0:	00006a97          	auipc	s5,0x6
     3a4:	db8a8a93          	addi	s5,s5,-584 # 6158 <malloc+0x21a>
    int n = write(fd, (void *)addr, 8192);
     3a8:	6a09                	lui	s4,0x2
    n = write(1, (char *)addr, 8192);
     3aa:	4b05                	li	s6,1
    if (pipe(fds) < 0) {
     3ac:	f9840c13          	addi	s8,s0,-104
    uint64 addr = addrs[ai];
     3b0:	00093983          	ld	s3,0(s2)
    int fd = open("copyin1", O_CREATE | O_WRONLY);
     3b4:	85de                	mv	a1,s7
     3b6:	8556                	mv	a0,s5
     3b8:	00005097          	auipc	ra,0x5
     3bc:	79c080e7          	jalr	1948(ra) # 5b54 <open>
     3c0:	84aa                	mv	s1,a0
    if (fd < 0) {
     3c2:	08054b63          	bltz	a0,458 <copyin+0xe6>
    int n = write(fd, (void *)addr, 8192);
     3c6:	8652                	mv	a2,s4
     3c8:	85ce                	mv	a1,s3
     3ca:	00005097          	auipc	ra,0x5
     3ce:	76a080e7          	jalr	1898(ra) # 5b34 <write>
    if (n >= 0) {
     3d2:	0a055063          	bgez	a0,472 <copyin+0x100>
    close(fd);
     3d6:	8526                	mv	a0,s1
     3d8:	00005097          	auipc	ra,0x5
     3dc:	764080e7          	jalr	1892(ra) # 5b3c <close>
    unlink("copyin1");
     3e0:	8556                	mv	a0,s5
     3e2:	00005097          	auipc	ra,0x5
     3e6:	782080e7          	jalr	1922(ra) # 5b64 <unlink>
    n = write(1, (char *)addr, 8192);
     3ea:	8652                	mv	a2,s4
     3ec:	85ce                	mv	a1,s3
     3ee:	855a                	mv	a0,s6
     3f0:	00005097          	auipc	ra,0x5
     3f4:	744080e7          	jalr	1860(ra) # 5b34 <write>
    if (n > 0) {
     3f8:	08a04c63          	bgtz	a0,490 <copyin+0x11e>
    if (pipe(fds) < 0) {
     3fc:	8562                	mv	a0,s8
     3fe:	00005097          	auipc	ra,0x5
     402:	726080e7          	jalr	1830(ra) # 5b24 <pipe>
     406:	0a054463          	bltz	a0,4ae <copyin+0x13c>
    n = write(fds[1], (char *)addr, 8192);
     40a:	8652                	mv	a2,s4
     40c:	85ce                	mv	a1,s3
     40e:	f9c42503          	lw	a0,-100(s0)
     412:	00005097          	auipc	ra,0x5
     416:	722080e7          	jalr	1826(ra) # 5b34 <write>
    if (n > 0) {
     41a:	0aa04763          	bgtz	a0,4c8 <copyin+0x156>
    close(fds[0]);
     41e:	f9842503          	lw	a0,-104(s0)
     422:	00005097          	auipc	ra,0x5
     426:	71a080e7          	jalr	1818(ra) # 5b3c <close>
    close(fds[1]);
     42a:	f9c42503          	lw	a0,-100(s0)
     42e:	00005097          	auipc	ra,0x5
     432:	70e080e7          	jalr	1806(ra) # 5b3c <close>
  for (int ai = 0; ai < 2; ai++) {
     436:	0921                	addi	s2,s2,8
     438:	fb040793          	addi	a5,s0,-80
     43c:	f6f91ae3          	bne	s2,a5,3b0 <copyin+0x3e>
}
     440:	70a6                	ld	ra,104(sp)
     442:	7406                	ld	s0,96(sp)
     444:	64e6                	ld	s1,88(sp)
     446:	6946                	ld	s2,80(sp)
     448:	69a6                	ld	s3,72(sp)
     44a:	6a06                	ld	s4,64(sp)
     44c:	7ae2                	ld	s5,56(sp)
     44e:	7b42                	ld	s6,48(sp)
     450:	7ba2                	ld	s7,40(sp)
     452:	7c02                	ld	s8,32(sp)
     454:	6165                	addi	sp,sp,112
     456:	8082                	ret
      printf("open(copyin1) failed\n");
     458:	00006517          	auipc	a0,0x6
     45c:	d0850513          	addi	a0,a0,-760 # 6160 <malloc+0x222>
     460:	00006097          	auipc	ra,0x6
     464:	a22080e7          	jalr	-1502(ra) # 5e82 <printf>
      exit(1);
     468:	4505                	li	a0,1
     46a:	00005097          	auipc	ra,0x5
     46e:	6aa080e7          	jalr	1706(ra) # 5b14 <exit>
      printf("write(fd, %p, 8192) returned %d, not -1\n", addr, n);
     472:	862a                	mv	a2,a0
     474:	85ce                	mv	a1,s3
     476:	00006517          	auipc	a0,0x6
     47a:	d0250513          	addi	a0,a0,-766 # 6178 <malloc+0x23a>
     47e:	00006097          	auipc	ra,0x6
     482:	a04080e7          	jalr	-1532(ra) # 5e82 <printf>
      exit(1);
     486:	4505                	li	a0,1
     488:	00005097          	auipc	ra,0x5
     48c:	68c080e7          	jalr	1676(ra) # 5b14 <exit>
      printf("write(1, %p, 8192) returned %d, not -1 or 0\n", addr, n);
     490:	862a                	mv	a2,a0
     492:	85ce                	mv	a1,s3
     494:	00006517          	auipc	a0,0x6
     498:	d1450513          	addi	a0,a0,-748 # 61a8 <malloc+0x26a>
     49c:	00006097          	auipc	ra,0x6
     4a0:	9e6080e7          	jalr	-1562(ra) # 5e82 <printf>
      exit(1);
     4a4:	4505                	li	a0,1
     4a6:	00005097          	auipc	ra,0x5
     4aa:	66e080e7          	jalr	1646(ra) # 5b14 <exit>
      printf("pipe() failed\n");
     4ae:	00006517          	auipc	a0,0x6
     4b2:	d2a50513          	addi	a0,a0,-726 # 61d8 <malloc+0x29a>
     4b6:	00006097          	auipc	ra,0x6
     4ba:	9cc080e7          	jalr	-1588(ra) # 5e82 <printf>
      exit(1);
     4be:	4505                	li	a0,1
     4c0:	00005097          	auipc	ra,0x5
     4c4:	654080e7          	jalr	1620(ra) # 5b14 <exit>
      printf("write(pipe, %p, 8192) returned %d, not -1 or 0\n", addr, n);
     4c8:	862a                	mv	a2,a0
     4ca:	85ce                	mv	a1,s3
     4cc:	00006517          	auipc	a0,0x6
     4d0:	d1c50513          	addi	a0,a0,-740 # 61e8 <malloc+0x2aa>
     4d4:	00006097          	auipc	ra,0x6
     4d8:	9ae080e7          	jalr	-1618(ra) # 5e82 <printf>
      exit(1);
     4dc:	4505                	li	a0,1
     4de:	00005097          	auipc	ra,0x5
     4e2:	636080e7          	jalr	1590(ra) # 5b14 <exit>

00000000000004e6 <copyout>:
void copyout(char *s) {
     4e6:	7159                	addi	sp,sp,-112
     4e8:	f486                	sd	ra,104(sp)
     4ea:	f0a2                	sd	s0,96(sp)
     4ec:	eca6                	sd	s1,88(sp)
     4ee:	e8ca                	sd	s2,80(sp)
     4f0:	e4ce                	sd	s3,72(sp)
     4f2:	e0d2                	sd	s4,64(sp)
     4f4:	fc56                	sd	s5,56(sp)
     4f6:	f85a                	sd	s6,48(sp)
     4f8:	f45e                	sd	s7,40(sp)
     4fa:	f062                	sd	s8,32(sp)
     4fc:	1880                	addi	s0,sp,112
  uint64 addrs[] = {0x80000000LL, 0xffffffffffffffff};
     4fe:	4785                	li	a5,1
     500:	07fe                	slli	a5,a5,0x1f
     502:	faf43023          	sd	a5,-96(s0)
     506:	57fd                	li	a5,-1
     508:	faf43423          	sd	a5,-88(s0)
  for (int ai = 0; ai < 2; ai++) {
     50c:	fa040913          	addi	s2,s0,-96
    int fd = open("README", 0);
     510:	00006b97          	auipc	s7,0x6
     514:	d08b8b93          	addi	s7,s7,-760 # 6218 <malloc+0x2da>
    int n = read(fd, (void *)addr, 8192);
     518:	6a09                	lui	s4,0x2
    if (pipe(fds) < 0) {
     51a:	f9840b13          	addi	s6,s0,-104
    n = write(fds[1], "x", 1);
     51e:	4a85                	li	s5,1
     520:	00006c17          	auipc	s8,0x6
     524:	bc0c0c13          	addi	s8,s8,-1088 # 60e0 <malloc+0x1a2>
    uint64 addr = addrs[ai];
     528:	00093983          	ld	s3,0(s2)
    int fd = open("README", 0);
     52c:	4581                	li	a1,0
     52e:	855e                	mv	a0,s7
     530:	00005097          	auipc	ra,0x5
     534:	624080e7          	jalr	1572(ra) # 5b54 <open>
     538:	84aa                	mv	s1,a0
    if (fd < 0) {
     53a:	08054763          	bltz	a0,5c8 <copyout+0xe2>
    int n = read(fd, (void *)addr, 8192);
     53e:	8652                	mv	a2,s4
     540:	85ce                	mv	a1,s3
     542:	00005097          	auipc	ra,0x5
     546:	5ea080e7          	jalr	1514(ra) # 5b2c <read>
    if (n > 0) {
     54a:	08a04c63          	bgtz	a0,5e2 <copyout+0xfc>
    close(fd);
     54e:	8526                	mv	a0,s1
     550:	00005097          	auipc	ra,0x5
     554:	5ec080e7          	jalr	1516(ra) # 5b3c <close>
    if (pipe(fds) < 0) {
     558:	855a                	mv	a0,s6
     55a:	00005097          	auipc	ra,0x5
     55e:	5ca080e7          	jalr	1482(ra) # 5b24 <pipe>
     562:	08054f63          	bltz	a0,600 <copyout+0x11a>
    n = write(fds[1], "x", 1);
     566:	8656                	mv	a2,s5
     568:	85e2                	mv	a1,s8
     56a:	f9c42503          	lw	a0,-100(s0)
     56e:	00005097          	auipc	ra,0x5
     572:	5c6080e7          	jalr	1478(ra) # 5b34 <write>
    if (n != 1) {
     576:	0b551263          	bne	a0,s5,61a <copyout+0x134>
    n = read(fds[0], (void *)addr, 8192);
     57a:	8652                	mv	a2,s4
     57c:	85ce                	mv	a1,s3
     57e:	f9842503          	lw	a0,-104(s0)
     582:	00005097          	auipc	ra,0x5
     586:	5aa080e7          	jalr	1450(ra) # 5b2c <read>
    if (n > 0) {
     58a:	0aa04563          	bgtz	a0,634 <copyout+0x14e>
    close(fds[0]);
     58e:	f9842503          	lw	a0,-104(s0)
     592:	00005097          	auipc	ra,0x5
     596:	5aa080e7          	jalr	1450(ra) # 5b3c <close>
    close(fds[1]);
     59a:	f9c42503          	lw	a0,-100(s0)
     59e:	00005097          	auipc	ra,0x5
     5a2:	59e080e7          	jalr	1438(ra) # 5b3c <close>
  for (int ai = 0; ai < 2; ai++) {
     5a6:	0921                	addi	s2,s2,8
     5a8:	fb040793          	addi	a5,s0,-80
     5ac:	f6f91ee3          	bne	s2,a5,528 <copyout+0x42>
}
     5b0:	70a6                	ld	ra,104(sp)
     5b2:	7406                	ld	s0,96(sp)
     5b4:	64e6                	ld	s1,88(sp)
     5b6:	6946                	ld	s2,80(sp)
     5b8:	69a6                	ld	s3,72(sp)
     5ba:	6a06                	ld	s4,64(sp)
     5bc:	7ae2                	ld	s5,56(sp)
     5be:	7b42                	ld	s6,48(sp)
     5c0:	7ba2                	ld	s7,40(sp)
     5c2:	7c02                	ld	s8,32(sp)
     5c4:	6165                	addi	sp,sp,112
     5c6:	8082                	ret
      printf("open(README) failed\n");
     5c8:	00006517          	auipc	a0,0x6
     5cc:	c5850513          	addi	a0,a0,-936 # 6220 <malloc+0x2e2>
     5d0:	00006097          	auipc	ra,0x6
     5d4:	8b2080e7          	jalr	-1870(ra) # 5e82 <printf>
      exit(1);
     5d8:	4505                	li	a0,1
     5da:	00005097          	auipc	ra,0x5
     5de:	53a080e7          	jalr	1338(ra) # 5b14 <exit>
      printf("read(fd, %p, 8192) returned %d, not -1 or 0\n", addr, n);
     5e2:	862a                	mv	a2,a0
     5e4:	85ce                	mv	a1,s3
     5e6:	00006517          	auipc	a0,0x6
     5ea:	c5250513          	addi	a0,a0,-942 # 6238 <malloc+0x2fa>
     5ee:	00006097          	auipc	ra,0x6
     5f2:	894080e7          	jalr	-1900(ra) # 5e82 <printf>
      exit(1);
     5f6:	4505                	li	a0,1
     5f8:	00005097          	auipc	ra,0x5
     5fc:	51c080e7          	jalr	1308(ra) # 5b14 <exit>
      printf("pipe() failed\n");
     600:	00006517          	auipc	a0,0x6
     604:	bd850513          	addi	a0,a0,-1064 # 61d8 <malloc+0x29a>
     608:	00006097          	auipc	ra,0x6
     60c:	87a080e7          	jalr	-1926(ra) # 5e82 <printf>
      exit(1);
     610:	4505                	li	a0,1
     612:	00005097          	auipc	ra,0x5
     616:	502080e7          	jalr	1282(ra) # 5b14 <exit>
      printf("pipe write failed\n");
     61a:	00006517          	auipc	a0,0x6
     61e:	c4e50513          	addi	a0,a0,-946 # 6268 <malloc+0x32a>
     622:	00006097          	auipc	ra,0x6
     626:	860080e7          	jalr	-1952(ra) # 5e82 <printf>
      exit(1);
     62a:	4505                	li	a0,1
     62c:	00005097          	auipc	ra,0x5
     630:	4e8080e7          	jalr	1256(ra) # 5b14 <exit>
      printf("read(pipe, %p, 8192) returned %d, not -1 or 0\n", addr, n);
     634:	862a                	mv	a2,a0
     636:	85ce                	mv	a1,s3
     638:	00006517          	auipc	a0,0x6
     63c:	c4850513          	addi	a0,a0,-952 # 6280 <malloc+0x342>
     640:	00006097          	auipc	ra,0x6
     644:	842080e7          	jalr	-1982(ra) # 5e82 <printf>
      exit(1);
     648:	4505                	li	a0,1
     64a:	00005097          	auipc	ra,0x5
     64e:	4ca080e7          	jalr	1226(ra) # 5b14 <exit>

0000000000000652 <truncate1>:
void truncate1(char *s) {
     652:	711d                	addi	sp,sp,-96
     654:	ec86                	sd	ra,88(sp)
     656:	e8a2                	sd	s0,80(sp)
     658:	e4a6                	sd	s1,72(sp)
     65a:	e0ca                	sd	s2,64(sp)
     65c:	fc4e                	sd	s3,56(sp)
     65e:	f852                	sd	s4,48(sp)
     660:	f456                	sd	s5,40(sp)
     662:	1080                	addi	s0,sp,96
     664:	8a2a                	mv	s4,a0
  unlink("truncfile");
     666:	00006517          	auipc	a0,0x6
     66a:	a6250513          	addi	a0,a0,-1438 # 60c8 <malloc+0x18a>
     66e:	00005097          	auipc	ra,0x5
     672:	4f6080e7          	jalr	1270(ra) # 5b64 <unlink>
  int fd1 = open("truncfile", O_CREATE | O_WRONLY | O_TRUNC);
     676:	60100593          	li	a1,1537
     67a:	00006517          	auipc	a0,0x6
     67e:	a4e50513          	addi	a0,a0,-1458 # 60c8 <malloc+0x18a>
     682:	00005097          	auipc	ra,0x5
     686:	4d2080e7          	jalr	1234(ra) # 5b54 <open>
     68a:	84aa                	mv	s1,a0
  write(fd1, "abcd", 4);
     68c:	4611                	li	a2,4
     68e:	00006597          	auipc	a1,0x6
     692:	a4a58593          	addi	a1,a1,-1462 # 60d8 <malloc+0x19a>
     696:	00005097          	auipc	ra,0x5
     69a:	49e080e7          	jalr	1182(ra) # 5b34 <write>
  close(fd1);
     69e:	8526                	mv	a0,s1
     6a0:	00005097          	auipc	ra,0x5
     6a4:	49c080e7          	jalr	1180(ra) # 5b3c <close>
  int fd2 = open("truncfile", O_RDONLY);
     6a8:	4581                	li	a1,0
     6aa:	00006517          	auipc	a0,0x6
     6ae:	a1e50513          	addi	a0,a0,-1506 # 60c8 <malloc+0x18a>
     6b2:	00005097          	auipc	ra,0x5
     6b6:	4a2080e7          	jalr	1186(ra) # 5b54 <open>
     6ba:	84aa                	mv	s1,a0
  int n = read(fd2, buf, sizeof(buf));
     6bc:	02000613          	li	a2,32
     6c0:	fa040593          	addi	a1,s0,-96
     6c4:	00005097          	auipc	ra,0x5
     6c8:	468080e7          	jalr	1128(ra) # 5b2c <read>
  if (n != 4) {
     6cc:	4791                	li	a5,4
     6ce:	0cf51e63          	bne	a0,a5,7aa <truncate1+0x158>
  fd1 = open("truncfile", O_WRONLY | O_TRUNC);
     6d2:	40100593          	li	a1,1025
     6d6:	00006517          	auipc	a0,0x6
     6da:	9f250513          	addi	a0,a0,-1550 # 60c8 <malloc+0x18a>
     6de:	00005097          	auipc	ra,0x5
     6e2:	476080e7          	jalr	1142(ra) # 5b54 <open>
     6e6:	89aa                	mv	s3,a0
  int fd3 = open("truncfile", O_RDONLY);
     6e8:	4581                	li	a1,0
     6ea:	00006517          	auipc	a0,0x6
     6ee:	9de50513          	addi	a0,a0,-1570 # 60c8 <malloc+0x18a>
     6f2:	00005097          	auipc	ra,0x5
     6f6:	462080e7          	jalr	1122(ra) # 5b54 <open>
     6fa:	892a                	mv	s2,a0
  n = read(fd3, buf, sizeof(buf));
     6fc:	02000613          	li	a2,32
     700:	fa040593          	addi	a1,s0,-96
     704:	00005097          	auipc	ra,0x5
     708:	428080e7          	jalr	1064(ra) # 5b2c <read>
     70c:	8aaa                	mv	s5,a0
  if (n != 0) {
     70e:	ed4d                	bnez	a0,7c8 <truncate1+0x176>
  n = read(fd2, buf, sizeof(buf));
     710:	02000613          	li	a2,32
     714:	fa040593          	addi	a1,s0,-96
     718:	8526                	mv	a0,s1
     71a:	00005097          	auipc	ra,0x5
     71e:	412080e7          	jalr	1042(ra) # 5b2c <read>
     722:	8aaa                	mv	s5,a0
  if (n != 0) {
     724:	e971                	bnez	a0,7f8 <truncate1+0x1a6>
  write(fd1, "abcdef", 6);
     726:	4619                	li	a2,6
     728:	00006597          	auipc	a1,0x6
     72c:	be858593          	addi	a1,a1,-1048 # 6310 <malloc+0x3d2>
     730:	854e                	mv	a0,s3
     732:	00005097          	auipc	ra,0x5
     736:	402080e7          	jalr	1026(ra) # 5b34 <write>
  n = read(fd3, buf, sizeof(buf));
     73a:	02000613          	li	a2,32
     73e:	fa040593          	addi	a1,s0,-96
     742:	854a                	mv	a0,s2
     744:	00005097          	auipc	ra,0x5
     748:	3e8080e7          	jalr	1000(ra) # 5b2c <read>
  if (n != 6) {
     74c:	4799                	li	a5,6
     74e:	0cf51d63          	bne	a0,a5,828 <truncate1+0x1d6>
  n = read(fd2, buf, sizeof(buf));
     752:	02000613          	li	a2,32
     756:	fa040593          	addi	a1,s0,-96
     75a:	8526                	mv	a0,s1
     75c:	00005097          	auipc	ra,0x5
     760:	3d0080e7          	jalr	976(ra) # 5b2c <read>
  if (n != 2) {
     764:	4789                	li	a5,2
     766:	0ef51063          	bne	a0,a5,846 <truncate1+0x1f4>
  unlink("truncfile");
     76a:	00006517          	auipc	a0,0x6
     76e:	95e50513          	addi	a0,a0,-1698 # 60c8 <malloc+0x18a>
     772:	00005097          	auipc	ra,0x5
     776:	3f2080e7          	jalr	1010(ra) # 5b64 <unlink>
  close(fd1);
     77a:	854e                	mv	a0,s3
     77c:	00005097          	auipc	ra,0x5
     780:	3c0080e7          	jalr	960(ra) # 5b3c <close>
  close(fd2);
     784:	8526                	mv	a0,s1
     786:	00005097          	auipc	ra,0x5
     78a:	3b6080e7          	jalr	950(ra) # 5b3c <close>
  close(fd3);
     78e:	854a                	mv	a0,s2
     790:	00005097          	auipc	ra,0x5
     794:	3ac080e7          	jalr	940(ra) # 5b3c <close>
}
     798:	60e6                	ld	ra,88(sp)
     79a:	6446                	ld	s0,80(sp)
     79c:	64a6                	ld	s1,72(sp)
     79e:	6906                	ld	s2,64(sp)
     7a0:	79e2                	ld	s3,56(sp)
     7a2:	7a42                	ld	s4,48(sp)
     7a4:	7aa2                	ld	s5,40(sp)
     7a6:	6125                	addi	sp,sp,96
     7a8:	8082                	ret
    printf("%s: read %d bytes, wanted 4\n", s, n);
     7aa:	862a                	mv	a2,a0
     7ac:	85d2                	mv	a1,s4
     7ae:	00006517          	auipc	a0,0x6
     7b2:	b0250513          	addi	a0,a0,-1278 # 62b0 <malloc+0x372>
     7b6:	00005097          	auipc	ra,0x5
     7ba:	6cc080e7          	jalr	1740(ra) # 5e82 <printf>
    exit(1);
     7be:	4505                	li	a0,1
     7c0:	00005097          	auipc	ra,0x5
     7c4:	354080e7          	jalr	852(ra) # 5b14 <exit>
    printf("aaa fd3=%d\n", fd3);
     7c8:	85ca                	mv	a1,s2
     7ca:	00006517          	auipc	a0,0x6
     7ce:	b0650513          	addi	a0,a0,-1274 # 62d0 <malloc+0x392>
     7d2:	00005097          	auipc	ra,0x5
     7d6:	6b0080e7          	jalr	1712(ra) # 5e82 <printf>
    printf("%s: read %d bytes, wanted 0\n", s, n);
     7da:	8656                	mv	a2,s5
     7dc:	85d2                	mv	a1,s4
     7de:	00006517          	auipc	a0,0x6
     7e2:	b0250513          	addi	a0,a0,-1278 # 62e0 <malloc+0x3a2>
     7e6:	00005097          	auipc	ra,0x5
     7ea:	69c080e7          	jalr	1692(ra) # 5e82 <printf>
    exit(1);
     7ee:	4505                	li	a0,1
     7f0:	00005097          	auipc	ra,0x5
     7f4:	324080e7          	jalr	804(ra) # 5b14 <exit>
    printf("bbb fd2=%d\n", fd2);
     7f8:	85a6                	mv	a1,s1
     7fa:	00006517          	auipc	a0,0x6
     7fe:	b0650513          	addi	a0,a0,-1274 # 6300 <malloc+0x3c2>
     802:	00005097          	auipc	ra,0x5
     806:	680080e7          	jalr	1664(ra) # 5e82 <printf>
    printf("%s: read %d bytes, wanted 0\n", s, n);
     80a:	8656                	mv	a2,s5
     80c:	85d2                	mv	a1,s4
     80e:	00006517          	auipc	a0,0x6
     812:	ad250513          	addi	a0,a0,-1326 # 62e0 <malloc+0x3a2>
     816:	00005097          	auipc	ra,0x5
     81a:	66c080e7          	jalr	1644(ra) # 5e82 <printf>
    exit(1);
     81e:	4505                	li	a0,1
     820:	00005097          	auipc	ra,0x5
     824:	2f4080e7          	jalr	756(ra) # 5b14 <exit>
    printf("%s: read %d bytes, wanted 6\n", s, n);
     828:	862a                	mv	a2,a0
     82a:	85d2                	mv	a1,s4
     82c:	00006517          	auipc	a0,0x6
     830:	aec50513          	addi	a0,a0,-1300 # 6318 <malloc+0x3da>
     834:	00005097          	auipc	ra,0x5
     838:	64e080e7          	jalr	1614(ra) # 5e82 <printf>
    exit(1);
     83c:	4505                	li	a0,1
     83e:	00005097          	auipc	ra,0x5
     842:	2d6080e7          	jalr	726(ra) # 5b14 <exit>
    printf("%s: read %d bytes, wanted 2\n", s, n);
     846:	862a                	mv	a2,a0
     848:	85d2                	mv	a1,s4
     84a:	00006517          	auipc	a0,0x6
     84e:	aee50513          	addi	a0,a0,-1298 # 6338 <malloc+0x3fa>
     852:	00005097          	auipc	ra,0x5
     856:	630080e7          	jalr	1584(ra) # 5e82 <printf>
    exit(1);
     85a:	4505                	li	a0,1
     85c:	00005097          	auipc	ra,0x5
     860:	2b8080e7          	jalr	696(ra) # 5b14 <exit>

0000000000000864 <writetest>:
void writetest(char *s) {
     864:	715d                	addi	sp,sp,-80
     866:	e486                	sd	ra,72(sp)
     868:	e0a2                	sd	s0,64(sp)
     86a:	fc26                	sd	s1,56(sp)
     86c:	f84a                	sd	s2,48(sp)
     86e:	f44e                	sd	s3,40(sp)
     870:	f052                	sd	s4,32(sp)
     872:	ec56                	sd	s5,24(sp)
     874:	e85a                	sd	s6,16(sp)
     876:	e45e                	sd	s7,8(sp)
     878:	0880                	addi	s0,sp,80
     87a:	8baa                	mv	s7,a0
  fd = open("small", O_CREATE | O_RDWR);
     87c:	20200593          	li	a1,514
     880:	00006517          	auipc	a0,0x6
     884:	ad850513          	addi	a0,a0,-1320 # 6358 <malloc+0x41a>
     888:	00005097          	auipc	ra,0x5
     88c:	2cc080e7          	jalr	716(ra) # 5b54 <open>
  if (fd < 0) {
     890:	0a054d63          	bltz	a0,94a <writetest+0xe6>
     894:	89aa                	mv	s3,a0
     896:	4901                	li	s2,0
    if (write(fd, "aaaaaaaaaa", SZ) != SZ) {
     898:	44a9                	li	s1,10
     89a:	00006a17          	auipc	s4,0x6
     89e:	ae6a0a13          	addi	s4,s4,-1306 # 6380 <malloc+0x442>
    if (write(fd, "bbbbbbbbbb", SZ) != SZ) {
     8a2:	00006b17          	auipc	s6,0x6
     8a6:	b16b0b13          	addi	s6,s6,-1258 # 63b8 <malloc+0x47a>
  for (i = 0; i < N; i++) {
     8aa:	06400a93          	li	s5,100
    if (write(fd, "aaaaaaaaaa", SZ) != SZ) {
     8ae:	8626                	mv	a2,s1
     8b0:	85d2                	mv	a1,s4
     8b2:	854e                	mv	a0,s3
     8b4:	00005097          	auipc	ra,0x5
     8b8:	280080e7          	jalr	640(ra) # 5b34 <write>
     8bc:	0a951563          	bne	a0,s1,966 <writetest+0x102>
    if (write(fd, "bbbbbbbbbb", SZ) != SZ) {
     8c0:	8626                	mv	a2,s1
     8c2:	85da                	mv	a1,s6
     8c4:	854e                	mv	a0,s3
     8c6:	00005097          	auipc	ra,0x5
     8ca:	26e080e7          	jalr	622(ra) # 5b34 <write>
     8ce:	0a951b63          	bne	a0,s1,984 <writetest+0x120>
  for (i = 0; i < N; i++) {
     8d2:	2905                	addiw	s2,s2,1
     8d4:	fd591de3          	bne	s2,s5,8ae <writetest+0x4a>
  close(fd);
     8d8:	854e                	mv	a0,s3
     8da:	00005097          	auipc	ra,0x5
     8de:	262080e7          	jalr	610(ra) # 5b3c <close>
  fd = open("small", O_RDONLY);
     8e2:	4581                	li	a1,0
     8e4:	00006517          	auipc	a0,0x6
     8e8:	a7450513          	addi	a0,a0,-1420 # 6358 <malloc+0x41a>
     8ec:	00005097          	auipc	ra,0x5
     8f0:	268080e7          	jalr	616(ra) # 5b54 <open>
     8f4:	84aa                	mv	s1,a0
  if (fd < 0) {
     8f6:	0a054663          	bltz	a0,9a2 <writetest+0x13e>
  i = read(fd, buf, N * SZ * 2);
     8fa:	7d000613          	li	a2,2000
     8fe:	0000d597          	auipc	a1,0xd
     902:	b5a58593          	addi	a1,a1,-1190 # d458 <buf>
     906:	00005097          	auipc	ra,0x5
     90a:	226080e7          	jalr	550(ra) # 5b2c <read>
  if (i != N * SZ * 2) {
     90e:	7d000793          	li	a5,2000
     912:	0af51663          	bne	a0,a5,9be <writetest+0x15a>
  close(fd);
     916:	8526                	mv	a0,s1
     918:	00005097          	auipc	ra,0x5
     91c:	224080e7          	jalr	548(ra) # 5b3c <close>
  if (unlink("small") < 0) {
     920:	00006517          	auipc	a0,0x6
     924:	a3850513          	addi	a0,a0,-1480 # 6358 <malloc+0x41a>
     928:	00005097          	auipc	ra,0x5
     92c:	23c080e7          	jalr	572(ra) # 5b64 <unlink>
     930:	0a054563          	bltz	a0,9da <writetest+0x176>
}
     934:	60a6                	ld	ra,72(sp)
     936:	6406                	ld	s0,64(sp)
     938:	74e2                	ld	s1,56(sp)
     93a:	7942                	ld	s2,48(sp)
     93c:	79a2                	ld	s3,40(sp)
     93e:	7a02                	ld	s4,32(sp)
     940:	6ae2                	ld	s5,24(sp)
     942:	6b42                	ld	s6,16(sp)
     944:	6ba2                	ld	s7,8(sp)
     946:	6161                	addi	sp,sp,80
     948:	8082                	ret
    printf("%s: error: creat small failed!\n", s);
     94a:	85de                	mv	a1,s7
     94c:	00006517          	auipc	a0,0x6
     950:	a1450513          	addi	a0,a0,-1516 # 6360 <malloc+0x422>
     954:	00005097          	auipc	ra,0x5
     958:	52e080e7          	jalr	1326(ra) # 5e82 <printf>
    exit(1);
     95c:	4505                	li	a0,1
     95e:	00005097          	auipc	ra,0x5
     962:	1b6080e7          	jalr	438(ra) # 5b14 <exit>
      printf("%s: error: write aa %d new file failed\n", s, i);
     966:	864a                	mv	a2,s2
     968:	85de                	mv	a1,s7
     96a:	00006517          	auipc	a0,0x6
     96e:	a2650513          	addi	a0,a0,-1498 # 6390 <malloc+0x452>
     972:	00005097          	auipc	ra,0x5
     976:	510080e7          	jalr	1296(ra) # 5e82 <printf>
      exit(1);
     97a:	4505                	li	a0,1
     97c:	00005097          	auipc	ra,0x5
     980:	198080e7          	jalr	408(ra) # 5b14 <exit>
      printf("%s: error: write bb %d new file failed\n", s, i);
     984:	864a                	mv	a2,s2
     986:	85de                	mv	a1,s7
     988:	00006517          	auipc	a0,0x6
     98c:	a4050513          	addi	a0,a0,-1472 # 63c8 <malloc+0x48a>
     990:	00005097          	auipc	ra,0x5
     994:	4f2080e7          	jalr	1266(ra) # 5e82 <printf>
      exit(1);
     998:	4505                	li	a0,1
     99a:	00005097          	auipc	ra,0x5
     99e:	17a080e7          	jalr	378(ra) # 5b14 <exit>
    printf("%s: error: open small failed!\n", s);
     9a2:	85de                	mv	a1,s7
     9a4:	00006517          	auipc	a0,0x6
     9a8:	a4c50513          	addi	a0,a0,-1460 # 63f0 <malloc+0x4b2>
     9ac:	00005097          	auipc	ra,0x5
     9b0:	4d6080e7          	jalr	1238(ra) # 5e82 <printf>
    exit(1);
     9b4:	4505                	li	a0,1
     9b6:	00005097          	auipc	ra,0x5
     9ba:	15e080e7          	jalr	350(ra) # 5b14 <exit>
    printf("%s: read failed\n", s);
     9be:	85de                	mv	a1,s7
     9c0:	00006517          	auipc	a0,0x6
     9c4:	a5050513          	addi	a0,a0,-1456 # 6410 <malloc+0x4d2>
     9c8:	00005097          	auipc	ra,0x5
     9cc:	4ba080e7          	jalr	1210(ra) # 5e82 <printf>
    exit(1);
     9d0:	4505                	li	a0,1
     9d2:	00005097          	auipc	ra,0x5
     9d6:	142080e7          	jalr	322(ra) # 5b14 <exit>
    printf("%s: unlink small failed\n", s);
     9da:	85de                	mv	a1,s7
     9dc:	00006517          	auipc	a0,0x6
     9e0:	a4c50513          	addi	a0,a0,-1460 # 6428 <malloc+0x4ea>
     9e4:	00005097          	auipc	ra,0x5
     9e8:	49e080e7          	jalr	1182(ra) # 5e82 <printf>
    exit(1);
     9ec:	4505                	li	a0,1
     9ee:	00005097          	auipc	ra,0x5
     9f2:	126080e7          	jalr	294(ra) # 5b14 <exit>

00000000000009f6 <writebig>:
void writebig(char *s) {
     9f6:	7139                	addi	sp,sp,-64
     9f8:	fc06                	sd	ra,56(sp)
     9fa:	f822                	sd	s0,48(sp)
     9fc:	f426                	sd	s1,40(sp)
     9fe:	f04a                	sd	s2,32(sp)
     a00:	ec4e                	sd	s3,24(sp)
     a02:	e852                	sd	s4,16(sp)
     a04:	e456                	sd	s5,8(sp)
     a06:	e05a                	sd	s6,0(sp)
     a08:	0080                	addi	s0,sp,64
     a0a:	8b2a                	mv	s6,a0
  fd = open("big", O_CREATE | O_RDWR);
     a0c:	20200593          	li	a1,514
     a10:	00006517          	auipc	a0,0x6
     a14:	a3850513          	addi	a0,a0,-1480 # 6448 <malloc+0x50a>
     a18:	00005097          	auipc	ra,0x5
     a1c:	13c080e7          	jalr	316(ra) # 5b54 <open>
  if (fd < 0) {
     a20:	08054263          	bltz	a0,aa4 <writebig+0xae>
     a24:	8a2a                	mv	s4,a0
     a26:	4481                	li	s1,0
    ((int *)buf)[0] = i;
     a28:	0000d997          	auipc	s3,0xd
     a2c:	a3098993          	addi	s3,s3,-1488 # d458 <buf>
    if (write(fd, buf, BSIZE) != BSIZE) {
     a30:	40000913          	li	s2,1024
  for (i = 0; i < MAXFILE; i++) {
     a34:	10c00a93          	li	s5,268
    ((int *)buf)[0] = i;
     a38:	0099a023          	sw	s1,0(s3)
    if (write(fd, buf, BSIZE) != BSIZE) {
     a3c:	864a                	mv	a2,s2
     a3e:	85ce                	mv	a1,s3
     a40:	8552                	mv	a0,s4
     a42:	00005097          	auipc	ra,0x5
     a46:	0f2080e7          	jalr	242(ra) # 5b34 <write>
     a4a:	07251b63          	bne	a0,s2,ac0 <writebig+0xca>
  for (i = 0; i < MAXFILE; i++) {
     a4e:	2485                	addiw	s1,s1,1
     a50:	ff5494e3          	bne	s1,s5,a38 <writebig+0x42>
  close(fd);
     a54:	8552                	mv	a0,s4
     a56:	00005097          	auipc	ra,0x5
     a5a:	0e6080e7          	jalr	230(ra) # 5b3c <close>
  fd = open("big", O_RDONLY);
     a5e:	4581                	li	a1,0
     a60:	00006517          	auipc	a0,0x6
     a64:	9e850513          	addi	a0,a0,-1560 # 6448 <malloc+0x50a>
     a68:	00005097          	auipc	ra,0x5
     a6c:	0ec080e7          	jalr	236(ra) # 5b54 <open>
     a70:	8a2a                	mv	s4,a0
  n = 0;
     a72:	4481                	li	s1,0
    i = read(fd, buf, BSIZE);
     a74:	40000993          	li	s3,1024
     a78:	0000d917          	auipc	s2,0xd
     a7c:	9e090913          	addi	s2,s2,-1568 # d458 <buf>
  if (fd < 0) {
     a80:	04054f63          	bltz	a0,ade <writebig+0xe8>
    i = read(fd, buf, BSIZE);
     a84:	864e                	mv	a2,s3
     a86:	85ca                	mv	a1,s2
     a88:	8552                	mv	a0,s4
     a8a:	00005097          	auipc	ra,0x5
     a8e:	0a2080e7          	jalr	162(ra) # 5b2c <read>
    if (i == 0) {
     a92:	c525                	beqz	a0,afa <writebig+0x104>
    } else if (i != BSIZE) {
     a94:	0b351f63          	bne	a0,s3,b52 <writebig+0x15c>
    if (((int *)buf)[0] != n) {
     a98:	00092683          	lw	a3,0(s2)
     a9c:	0c969a63          	bne	a3,s1,b70 <writebig+0x17a>
    n++;
     aa0:	2485                	addiw	s1,s1,1
    i = read(fd, buf, BSIZE);
     aa2:	b7cd                	j	a84 <writebig+0x8e>
    printf("%s: error: creat big failed!\n", s);
     aa4:	85da                	mv	a1,s6
     aa6:	00006517          	auipc	a0,0x6
     aaa:	9aa50513          	addi	a0,a0,-1622 # 6450 <malloc+0x512>
     aae:	00005097          	auipc	ra,0x5
     ab2:	3d4080e7          	jalr	980(ra) # 5e82 <printf>
    exit(1);
     ab6:	4505                	li	a0,1
     ab8:	00005097          	auipc	ra,0x5
     abc:	05c080e7          	jalr	92(ra) # 5b14 <exit>
      printf("%s: error: write big file failed\n", s, i);
     ac0:	8626                	mv	a2,s1
     ac2:	85da                	mv	a1,s6
     ac4:	00006517          	auipc	a0,0x6
     ac8:	9ac50513          	addi	a0,a0,-1620 # 6470 <malloc+0x532>
     acc:	00005097          	auipc	ra,0x5
     ad0:	3b6080e7          	jalr	950(ra) # 5e82 <printf>
      exit(1);
     ad4:	4505                	li	a0,1
     ad6:	00005097          	auipc	ra,0x5
     ada:	03e080e7          	jalr	62(ra) # 5b14 <exit>
    printf("%s: error: open big failed!\n", s);
     ade:	85da                	mv	a1,s6
     ae0:	00006517          	auipc	a0,0x6
     ae4:	9b850513          	addi	a0,a0,-1608 # 6498 <malloc+0x55a>
     ae8:	00005097          	auipc	ra,0x5
     aec:	39a080e7          	jalr	922(ra) # 5e82 <printf>
    exit(1);
     af0:	4505                	li	a0,1
     af2:	00005097          	auipc	ra,0x5
     af6:	022080e7          	jalr	34(ra) # 5b14 <exit>
      if (n == MAXFILE - 1) {
     afa:	10b00793          	li	a5,267
     afe:	02f48b63          	beq	s1,a5,b34 <writebig+0x13e>
  close(fd);
     b02:	8552                	mv	a0,s4
     b04:	00005097          	auipc	ra,0x5
     b08:	038080e7          	jalr	56(ra) # 5b3c <close>
  if (unlink("big") < 0) {
     b0c:	00006517          	auipc	a0,0x6
     b10:	93c50513          	addi	a0,a0,-1732 # 6448 <malloc+0x50a>
     b14:	00005097          	auipc	ra,0x5
     b18:	050080e7          	jalr	80(ra) # 5b64 <unlink>
     b1c:	06054963          	bltz	a0,b8e <writebig+0x198>
}
     b20:	70e2                	ld	ra,56(sp)
     b22:	7442                	ld	s0,48(sp)
     b24:	74a2                	ld	s1,40(sp)
     b26:	7902                	ld	s2,32(sp)
     b28:	69e2                	ld	s3,24(sp)
     b2a:	6a42                	ld	s4,16(sp)
     b2c:	6aa2                	ld	s5,8(sp)
     b2e:	6b02                	ld	s6,0(sp)
     b30:	6121                	addi	sp,sp,64
     b32:	8082                	ret
        printf("%s: read only %d blocks from big", s, n);
     b34:	8626                	mv	a2,s1
     b36:	85da                	mv	a1,s6
     b38:	00006517          	auipc	a0,0x6
     b3c:	98050513          	addi	a0,a0,-1664 # 64b8 <malloc+0x57a>
     b40:	00005097          	auipc	ra,0x5
     b44:	342080e7          	jalr	834(ra) # 5e82 <printf>
        exit(1);
     b48:	4505                	li	a0,1
     b4a:	00005097          	auipc	ra,0x5
     b4e:	fca080e7          	jalr	-54(ra) # 5b14 <exit>
      printf("%s: read failed %d\n", s, i);
     b52:	862a                	mv	a2,a0
     b54:	85da                	mv	a1,s6
     b56:	00006517          	auipc	a0,0x6
     b5a:	98a50513          	addi	a0,a0,-1654 # 64e0 <malloc+0x5a2>
     b5e:	00005097          	auipc	ra,0x5
     b62:	324080e7          	jalr	804(ra) # 5e82 <printf>
      exit(1);
     b66:	4505                	li	a0,1
     b68:	00005097          	auipc	ra,0x5
     b6c:	fac080e7          	jalr	-84(ra) # 5b14 <exit>
      printf("%s: read content of block %d is %d\n", s, n, ((int *)buf)[0]);
     b70:	8626                	mv	a2,s1
     b72:	85da                	mv	a1,s6
     b74:	00006517          	auipc	a0,0x6
     b78:	98450513          	addi	a0,a0,-1660 # 64f8 <malloc+0x5ba>
     b7c:	00005097          	auipc	ra,0x5
     b80:	306080e7          	jalr	774(ra) # 5e82 <printf>
      exit(1);
     b84:	4505                	li	a0,1
     b86:	00005097          	auipc	ra,0x5
     b8a:	f8e080e7          	jalr	-114(ra) # 5b14 <exit>
    printf("%s: unlink big failed\n", s);
     b8e:	85da                	mv	a1,s6
     b90:	00006517          	auipc	a0,0x6
     b94:	99050513          	addi	a0,a0,-1648 # 6520 <malloc+0x5e2>
     b98:	00005097          	auipc	ra,0x5
     b9c:	2ea080e7          	jalr	746(ra) # 5e82 <printf>
    exit(1);
     ba0:	4505                	li	a0,1
     ba2:	00005097          	auipc	ra,0x5
     ba6:	f72080e7          	jalr	-142(ra) # 5b14 <exit>

0000000000000baa <unlinkread>:
void unlinkread(char *s) {
     baa:	7179                	addi	sp,sp,-48
     bac:	f406                	sd	ra,40(sp)
     bae:	f022                	sd	s0,32(sp)
     bb0:	ec26                	sd	s1,24(sp)
     bb2:	e84a                	sd	s2,16(sp)
     bb4:	e44e                	sd	s3,8(sp)
     bb6:	1800                	addi	s0,sp,48
     bb8:	89aa                	mv	s3,a0
  fd = open("unlinkread", O_CREATE | O_RDWR);
     bba:	20200593          	li	a1,514
     bbe:	00006517          	auipc	a0,0x6
     bc2:	97a50513          	addi	a0,a0,-1670 # 6538 <malloc+0x5fa>
     bc6:	00005097          	auipc	ra,0x5
     bca:	f8e080e7          	jalr	-114(ra) # 5b54 <open>
  if (fd < 0) {
     bce:	0e054563          	bltz	a0,cb8 <unlinkread+0x10e>
     bd2:	84aa                	mv	s1,a0
  write(fd, "hello", SZ);
     bd4:	4615                	li	a2,5
     bd6:	00006597          	auipc	a1,0x6
     bda:	99258593          	addi	a1,a1,-1646 # 6568 <malloc+0x62a>
     bde:	00005097          	auipc	ra,0x5
     be2:	f56080e7          	jalr	-170(ra) # 5b34 <write>
  close(fd);
     be6:	8526                	mv	a0,s1
     be8:	00005097          	auipc	ra,0x5
     bec:	f54080e7          	jalr	-172(ra) # 5b3c <close>
  fd = open("unlinkread", O_RDWR);
     bf0:	4589                	li	a1,2
     bf2:	00006517          	auipc	a0,0x6
     bf6:	94650513          	addi	a0,a0,-1722 # 6538 <malloc+0x5fa>
     bfa:	00005097          	auipc	ra,0x5
     bfe:	f5a080e7          	jalr	-166(ra) # 5b54 <open>
     c02:	84aa                	mv	s1,a0
  if (fd < 0) {
     c04:	0c054863          	bltz	a0,cd4 <unlinkread+0x12a>
  if (unlink("unlinkread") != 0) {
     c08:	00006517          	auipc	a0,0x6
     c0c:	93050513          	addi	a0,a0,-1744 # 6538 <malloc+0x5fa>
     c10:	00005097          	auipc	ra,0x5
     c14:	f54080e7          	jalr	-172(ra) # 5b64 <unlink>
     c18:	ed61                	bnez	a0,cf0 <unlinkread+0x146>
  fd1 = open("unlinkread", O_CREATE | O_RDWR);
     c1a:	20200593          	li	a1,514
     c1e:	00006517          	auipc	a0,0x6
     c22:	91a50513          	addi	a0,a0,-1766 # 6538 <malloc+0x5fa>
     c26:	00005097          	auipc	ra,0x5
     c2a:	f2e080e7          	jalr	-210(ra) # 5b54 <open>
     c2e:	892a                	mv	s2,a0
  write(fd1, "yyy", 3);
     c30:	460d                	li	a2,3
     c32:	00006597          	auipc	a1,0x6
     c36:	97e58593          	addi	a1,a1,-1666 # 65b0 <malloc+0x672>
     c3a:	00005097          	auipc	ra,0x5
     c3e:	efa080e7          	jalr	-262(ra) # 5b34 <write>
  close(fd1);
     c42:	854a                	mv	a0,s2
     c44:	00005097          	auipc	ra,0x5
     c48:	ef8080e7          	jalr	-264(ra) # 5b3c <close>
  if (read(fd, buf, sizeof(buf)) != SZ) {
     c4c:	660d                	lui	a2,0x3
     c4e:	0000d597          	auipc	a1,0xd
     c52:	80a58593          	addi	a1,a1,-2038 # d458 <buf>
     c56:	8526                	mv	a0,s1
     c58:	00005097          	auipc	ra,0x5
     c5c:	ed4080e7          	jalr	-300(ra) # 5b2c <read>
     c60:	4795                	li	a5,5
     c62:	0af51563          	bne	a0,a5,d0c <unlinkread+0x162>
  if (buf[0] != 'h') {
     c66:	0000c717          	auipc	a4,0xc
     c6a:	7f274703          	lbu	a4,2034(a4) # d458 <buf>
     c6e:	06800793          	li	a5,104
     c72:	0af71b63          	bne	a4,a5,d28 <unlinkread+0x17e>
  if (write(fd, buf, 10) != 10) {
     c76:	4629                	li	a2,10
     c78:	0000c597          	auipc	a1,0xc
     c7c:	7e058593          	addi	a1,a1,2016 # d458 <buf>
     c80:	8526                	mv	a0,s1
     c82:	00005097          	auipc	ra,0x5
     c86:	eb2080e7          	jalr	-334(ra) # 5b34 <write>
     c8a:	47a9                	li	a5,10
     c8c:	0af51c63          	bne	a0,a5,d44 <unlinkread+0x19a>
  close(fd);
     c90:	8526                	mv	a0,s1
     c92:	00005097          	auipc	ra,0x5
     c96:	eaa080e7          	jalr	-342(ra) # 5b3c <close>
  unlink("unlinkread");
     c9a:	00006517          	auipc	a0,0x6
     c9e:	89e50513          	addi	a0,a0,-1890 # 6538 <malloc+0x5fa>
     ca2:	00005097          	auipc	ra,0x5
     ca6:	ec2080e7          	jalr	-318(ra) # 5b64 <unlink>
}
     caa:	70a2                	ld	ra,40(sp)
     cac:	7402                	ld	s0,32(sp)
     cae:	64e2                	ld	s1,24(sp)
     cb0:	6942                	ld	s2,16(sp)
     cb2:	69a2                	ld	s3,8(sp)
     cb4:	6145                	addi	sp,sp,48
     cb6:	8082                	ret
    printf("%s: create unlinkread failed\n", s);
     cb8:	85ce                	mv	a1,s3
     cba:	00006517          	auipc	a0,0x6
     cbe:	88e50513          	addi	a0,a0,-1906 # 6548 <malloc+0x60a>
     cc2:	00005097          	auipc	ra,0x5
     cc6:	1c0080e7          	jalr	448(ra) # 5e82 <printf>
    exit(1);
     cca:	4505                	li	a0,1
     ccc:	00005097          	auipc	ra,0x5
     cd0:	e48080e7          	jalr	-440(ra) # 5b14 <exit>
    printf("%s: open unlinkread failed\n", s);
     cd4:	85ce                	mv	a1,s3
     cd6:	00006517          	auipc	a0,0x6
     cda:	89a50513          	addi	a0,a0,-1894 # 6570 <malloc+0x632>
     cde:	00005097          	auipc	ra,0x5
     ce2:	1a4080e7          	jalr	420(ra) # 5e82 <printf>
    exit(1);
     ce6:	4505                	li	a0,1
     ce8:	00005097          	auipc	ra,0x5
     cec:	e2c080e7          	jalr	-468(ra) # 5b14 <exit>
    printf("%s: unlink unlinkread failed\n", s);
     cf0:	85ce                	mv	a1,s3
     cf2:	00006517          	auipc	a0,0x6
     cf6:	89e50513          	addi	a0,a0,-1890 # 6590 <malloc+0x652>
     cfa:	00005097          	auipc	ra,0x5
     cfe:	188080e7          	jalr	392(ra) # 5e82 <printf>
    exit(1);
     d02:	4505                	li	a0,1
     d04:	00005097          	auipc	ra,0x5
     d08:	e10080e7          	jalr	-496(ra) # 5b14 <exit>
    printf("%s: unlinkread read failed", s);
     d0c:	85ce                	mv	a1,s3
     d0e:	00006517          	auipc	a0,0x6
     d12:	8aa50513          	addi	a0,a0,-1878 # 65b8 <malloc+0x67a>
     d16:	00005097          	auipc	ra,0x5
     d1a:	16c080e7          	jalr	364(ra) # 5e82 <printf>
    exit(1);
     d1e:	4505                	li	a0,1
     d20:	00005097          	auipc	ra,0x5
     d24:	df4080e7          	jalr	-524(ra) # 5b14 <exit>
    printf("%s: unlinkread wrong data\n", s);
     d28:	85ce                	mv	a1,s3
     d2a:	00006517          	auipc	a0,0x6
     d2e:	8ae50513          	addi	a0,a0,-1874 # 65d8 <malloc+0x69a>
     d32:	00005097          	auipc	ra,0x5
     d36:	150080e7          	jalr	336(ra) # 5e82 <printf>
    exit(1);
     d3a:	4505                	li	a0,1
     d3c:	00005097          	auipc	ra,0x5
     d40:	dd8080e7          	jalr	-552(ra) # 5b14 <exit>
    printf("%s: unlinkread write failed\n", s);
     d44:	85ce                	mv	a1,s3
     d46:	00006517          	auipc	a0,0x6
     d4a:	8b250513          	addi	a0,a0,-1870 # 65f8 <malloc+0x6ba>
     d4e:	00005097          	auipc	ra,0x5
     d52:	134080e7          	jalr	308(ra) # 5e82 <printf>
    exit(1);
     d56:	4505                	li	a0,1
     d58:	00005097          	auipc	ra,0x5
     d5c:	dbc080e7          	jalr	-580(ra) # 5b14 <exit>

0000000000000d60 <linktest>:
void linktest(char *s) {
     d60:	1101                	addi	sp,sp,-32
     d62:	ec06                	sd	ra,24(sp)
     d64:	e822                	sd	s0,16(sp)
     d66:	e426                	sd	s1,8(sp)
     d68:	e04a                	sd	s2,0(sp)
     d6a:	1000                	addi	s0,sp,32
     d6c:	892a                	mv	s2,a0
  unlink("lf1");
     d6e:	00006517          	auipc	a0,0x6
     d72:	8aa50513          	addi	a0,a0,-1878 # 6618 <malloc+0x6da>
     d76:	00005097          	auipc	ra,0x5
     d7a:	dee080e7          	jalr	-530(ra) # 5b64 <unlink>
  unlink("lf2");
     d7e:	00006517          	auipc	a0,0x6
     d82:	8a250513          	addi	a0,a0,-1886 # 6620 <malloc+0x6e2>
     d86:	00005097          	auipc	ra,0x5
     d8a:	dde080e7          	jalr	-546(ra) # 5b64 <unlink>
  fd = open("lf1", O_CREATE | O_RDWR);
     d8e:	20200593          	li	a1,514
     d92:	00006517          	auipc	a0,0x6
     d96:	88650513          	addi	a0,a0,-1914 # 6618 <malloc+0x6da>
     d9a:	00005097          	auipc	ra,0x5
     d9e:	dba080e7          	jalr	-582(ra) # 5b54 <open>
  if (fd < 0) {
     da2:	10054763          	bltz	a0,eb0 <linktest+0x150>
     da6:	84aa                	mv	s1,a0
  if (write(fd, "hello", SZ) != SZ) {
     da8:	4615                	li	a2,5
     daa:	00005597          	auipc	a1,0x5
     dae:	7be58593          	addi	a1,a1,1982 # 6568 <malloc+0x62a>
     db2:	00005097          	auipc	ra,0x5
     db6:	d82080e7          	jalr	-638(ra) # 5b34 <write>
     dba:	4795                	li	a5,5
     dbc:	10f51863          	bne	a0,a5,ecc <linktest+0x16c>
  close(fd);
     dc0:	8526                	mv	a0,s1
     dc2:	00005097          	auipc	ra,0x5
     dc6:	d7a080e7          	jalr	-646(ra) # 5b3c <close>
  if (link("lf1", "lf2") < 0) {
     dca:	00006597          	auipc	a1,0x6
     dce:	85658593          	addi	a1,a1,-1962 # 6620 <malloc+0x6e2>
     dd2:	00006517          	auipc	a0,0x6
     dd6:	84650513          	addi	a0,a0,-1978 # 6618 <malloc+0x6da>
     dda:	00005097          	auipc	ra,0x5
     dde:	d9a080e7          	jalr	-614(ra) # 5b74 <link>
     de2:	10054363          	bltz	a0,ee8 <linktest+0x188>
  unlink("lf1");
     de6:	00006517          	auipc	a0,0x6
     dea:	83250513          	addi	a0,a0,-1998 # 6618 <malloc+0x6da>
     dee:	00005097          	auipc	ra,0x5
     df2:	d76080e7          	jalr	-650(ra) # 5b64 <unlink>
  if (open("lf1", 0) >= 0) {
     df6:	4581                	li	a1,0
     df8:	00006517          	auipc	a0,0x6
     dfc:	82050513          	addi	a0,a0,-2016 # 6618 <malloc+0x6da>
     e00:	00005097          	auipc	ra,0x5
     e04:	d54080e7          	jalr	-684(ra) # 5b54 <open>
     e08:	0e055e63          	bgez	a0,f04 <linktest+0x1a4>
  fd = open("lf2", 0);
     e0c:	4581                	li	a1,0
     e0e:	00006517          	auipc	a0,0x6
     e12:	81250513          	addi	a0,a0,-2030 # 6620 <malloc+0x6e2>
     e16:	00005097          	auipc	ra,0x5
     e1a:	d3e080e7          	jalr	-706(ra) # 5b54 <open>
     e1e:	84aa                	mv	s1,a0
  if (fd < 0) {
     e20:	10054063          	bltz	a0,f20 <linktest+0x1c0>
  if (read(fd, buf, sizeof(buf)) != SZ) {
     e24:	660d                	lui	a2,0x3
     e26:	0000c597          	auipc	a1,0xc
     e2a:	63258593          	addi	a1,a1,1586 # d458 <buf>
     e2e:	00005097          	auipc	ra,0x5
     e32:	cfe080e7          	jalr	-770(ra) # 5b2c <read>
     e36:	4795                	li	a5,5
     e38:	10f51263          	bne	a0,a5,f3c <linktest+0x1dc>
  close(fd);
     e3c:	8526                	mv	a0,s1
     e3e:	00005097          	auipc	ra,0x5
     e42:	cfe080e7          	jalr	-770(ra) # 5b3c <close>
  if (link("lf2", "lf2") >= 0) {
     e46:	00005597          	auipc	a1,0x5
     e4a:	7da58593          	addi	a1,a1,2010 # 6620 <malloc+0x6e2>
     e4e:	852e                	mv	a0,a1
     e50:	00005097          	auipc	ra,0x5
     e54:	d24080e7          	jalr	-732(ra) # 5b74 <link>
     e58:	10055063          	bgez	a0,f58 <linktest+0x1f8>
  unlink("lf2");
     e5c:	00005517          	auipc	a0,0x5
     e60:	7c450513          	addi	a0,a0,1988 # 6620 <malloc+0x6e2>
     e64:	00005097          	auipc	ra,0x5
     e68:	d00080e7          	jalr	-768(ra) # 5b64 <unlink>
  if (link("lf2", "lf1") >= 0) {
     e6c:	00005597          	auipc	a1,0x5
     e70:	7ac58593          	addi	a1,a1,1964 # 6618 <malloc+0x6da>
     e74:	00005517          	auipc	a0,0x5
     e78:	7ac50513          	addi	a0,a0,1964 # 6620 <malloc+0x6e2>
     e7c:	00005097          	auipc	ra,0x5
     e80:	cf8080e7          	jalr	-776(ra) # 5b74 <link>
     e84:	0e055863          	bgez	a0,f74 <linktest+0x214>
  if (link(".", "lf1") >= 0) {
     e88:	00005597          	auipc	a1,0x5
     e8c:	79058593          	addi	a1,a1,1936 # 6618 <malloc+0x6da>
     e90:	00006517          	auipc	a0,0x6
     e94:	89850513          	addi	a0,a0,-1896 # 6728 <malloc+0x7ea>
     e98:	00005097          	auipc	ra,0x5
     e9c:	cdc080e7          	jalr	-804(ra) # 5b74 <link>
     ea0:	0e055863          	bgez	a0,f90 <linktest+0x230>
}
     ea4:	60e2                	ld	ra,24(sp)
     ea6:	6442                	ld	s0,16(sp)
     ea8:	64a2                	ld	s1,8(sp)
     eaa:	6902                	ld	s2,0(sp)
     eac:	6105                	addi	sp,sp,32
     eae:	8082                	ret
    printf("%s: create lf1 failed\n", s);
     eb0:	85ca                	mv	a1,s2
     eb2:	00005517          	auipc	a0,0x5
     eb6:	77650513          	addi	a0,a0,1910 # 6628 <malloc+0x6ea>
     eba:	00005097          	auipc	ra,0x5
     ebe:	fc8080e7          	jalr	-56(ra) # 5e82 <printf>
    exit(1);
     ec2:	4505                	li	a0,1
     ec4:	00005097          	auipc	ra,0x5
     ec8:	c50080e7          	jalr	-944(ra) # 5b14 <exit>
    printf("%s: write lf1 failed\n", s);
     ecc:	85ca                	mv	a1,s2
     ece:	00005517          	auipc	a0,0x5
     ed2:	77250513          	addi	a0,a0,1906 # 6640 <malloc+0x702>
     ed6:	00005097          	auipc	ra,0x5
     eda:	fac080e7          	jalr	-84(ra) # 5e82 <printf>
    exit(1);
     ede:	4505                	li	a0,1
     ee0:	00005097          	auipc	ra,0x5
     ee4:	c34080e7          	jalr	-972(ra) # 5b14 <exit>
    printf("%s: link lf1 lf2 failed\n", s);
     ee8:	85ca                	mv	a1,s2
     eea:	00005517          	auipc	a0,0x5
     eee:	76e50513          	addi	a0,a0,1902 # 6658 <malloc+0x71a>
     ef2:	00005097          	auipc	ra,0x5
     ef6:	f90080e7          	jalr	-112(ra) # 5e82 <printf>
    exit(1);
     efa:	4505                	li	a0,1
     efc:	00005097          	auipc	ra,0x5
     f00:	c18080e7          	jalr	-1000(ra) # 5b14 <exit>
    printf("%s: unlinked lf1 but it is still there!\n", s);
     f04:	85ca                	mv	a1,s2
     f06:	00005517          	auipc	a0,0x5
     f0a:	77250513          	addi	a0,a0,1906 # 6678 <malloc+0x73a>
     f0e:	00005097          	auipc	ra,0x5
     f12:	f74080e7          	jalr	-140(ra) # 5e82 <printf>
    exit(1);
     f16:	4505                	li	a0,1
     f18:	00005097          	auipc	ra,0x5
     f1c:	bfc080e7          	jalr	-1028(ra) # 5b14 <exit>
    printf("%s: open lf2 failed\n", s);
     f20:	85ca                	mv	a1,s2
     f22:	00005517          	auipc	a0,0x5
     f26:	78650513          	addi	a0,a0,1926 # 66a8 <malloc+0x76a>
     f2a:	00005097          	auipc	ra,0x5
     f2e:	f58080e7          	jalr	-168(ra) # 5e82 <printf>
    exit(1);
     f32:	4505                	li	a0,1
     f34:	00005097          	auipc	ra,0x5
     f38:	be0080e7          	jalr	-1056(ra) # 5b14 <exit>
    printf("%s: read lf2 failed\n", s);
     f3c:	85ca                	mv	a1,s2
     f3e:	00005517          	auipc	a0,0x5
     f42:	78250513          	addi	a0,a0,1922 # 66c0 <malloc+0x782>
     f46:	00005097          	auipc	ra,0x5
     f4a:	f3c080e7          	jalr	-196(ra) # 5e82 <printf>
    exit(1);
     f4e:	4505                	li	a0,1
     f50:	00005097          	auipc	ra,0x5
     f54:	bc4080e7          	jalr	-1084(ra) # 5b14 <exit>
    printf("%s: link lf2 lf2 succeeded! oops\n", s);
     f58:	85ca                	mv	a1,s2
     f5a:	00005517          	auipc	a0,0x5
     f5e:	77e50513          	addi	a0,a0,1918 # 66d8 <malloc+0x79a>
     f62:	00005097          	auipc	ra,0x5
     f66:	f20080e7          	jalr	-224(ra) # 5e82 <printf>
    exit(1);
     f6a:	4505                	li	a0,1
     f6c:	00005097          	auipc	ra,0x5
     f70:	ba8080e7          	jalr	-1112(ra) # 5b14 <exit>
    printf("%s: link non-existent succeeded! oops\n", s);
     f74:	85ca                	mv	a1,s2
     f76:	00005517          	auipc	a0,0x5
     f7a:	78a50513          	addi	a0,a0,1930 # 6700 <malloc+0x7c2>
     f7e:	00005097          	auipc	ra,0x5
     f82:	f04080e7          	jalr	-252(ra) # 5e82 <printf>
    exit(1);
     f86:	4505                	li	a0,1
     f88:	00005097          	auipc	ra,0x5
     f8c:	b8c080e7          	jalr	-1140(ra) # 5b14 <exit>
    printf("%s: link . lf1 succeeded! oops\n", s);
     f90:	85ca                	mv	a1,s2
     f92:	00005517          	auipc	a0,0x5
     f96:	79e50513          	addi	a0,a0,1950 # 6730 <malloc+0x7f2>
     f9a:	00005097          	auipc	ra,0x5
     f9e:	ee8080e7          	jalr	-280(ra) # 5e82 <printf>
    exit(1);
     fa2:	4505                	li	a0,1
     fa4:	00005097          	auipc	ra,0x5
     fa8:	b70080e7          	jalr	-1168(ra) # 5b14 <exit>

0000000000000fac <bigdir>:
void bigdir(char *s) {
     fac:	711d                	addi	sp,sp,-96
     fae:	ec86                	sd	ra,88(sp)
     fb0:	e8a2                	sd	s0,80(sp)
     fb2:	e4a6                	sd	s1,72(sp)
     fb4:	e0ca                	sd	s2,64(sp)
     fb6:	fc4e                	sd	s3,56(sp)
     fb8:	f852                	sd	s4,48(sp)
     fba:	f456                	sd	s5,40(sp)
     fbc:	f05a                	sd	s6,32(sp)
     fbe:	ec5e                	sd	s7,24(sp)
     fc0:	1080                	addi	s0,sp,96
     fc2:	8baa                	mv	s7,a0
  unlink("bd");
     fc4:	00005517          	auipc	a0,0x5
     fc8:	78c50513          	addi	a0,a0,1932 # 6750 <malloc+0x812>
     fcc:	00005097          	auipc	ra,0x5
     fd0:	b98080e7          	jalr	-1128(ra) # 5b64 <unlink>
  fd = open("bd", O_CREATE);
     fd4:	20000593          	li	a1,512
     fd8:	00005517          	auipc	a0,0x5
     fdc:	77850513          	addi	a0,a0,1912 # 6750 <malloc+0x812>
     fe0:	00005097          	auipc	ra,0x5
     fe4:	b74080e7          	jalr	-1164(ra) # 5b54 <open>
  if (fd < 0) {
     fe8:	0c054c63          	bltz	a0,10c0 <bigdir+0x114>
  close(fd);
     fec:	00005097          	auipc	ra,0x5
     ff0:	b50080e7          	jalr	-1200(ra) # 5b3c <close>
  for (i = 0; i < N; i++) {
     ff4:	4901                	li	s2,0
    name[0] = 'x';
     ff6:	07800a93          	li	s5,120
    if (link("bd", name) != 0) {
     ffa:	fa040a13          	addi	s4,s0,-96
     ffe:	00005997          	auipc	s3,0x5
    1002:	75298993          	addi	s3,s3,1874 # 6750 <malloc+0x812>
  for (i = 0; i < N; i++) {
    1006:	1f400b13          	li	s6,500
    name[0] = 'x';
    100a:	fb540023          	sb	s5,-96(s0)
    name[1] = '0' + (i / 64);
    100e:	41f9571b          	sraiw	a4,s2,0x1f
    1012:	01a7571b          	srliw	a4,a4,0x1a
    1016:	012707bb          	addw	a5,a4,s2
    101a:	4067d69b          	sraiw	a3,a5,0x6
    101e:	0306869b          	addiw	a3,a3,48
    1022:	fad400a3          	sb	a3,-95(s0)
    name[2] = '0' + (i % 64);
    1026:	03f7f793          	andi	a5,a5,63
    102a:	9f99                	subw	a5,a5,a4
    102c:	0307879b          	addiw	a5,a5,48
    1030:	faf40123          	sb	a5,-94(s0)
    name[3] = '\0';
    1034:	fa0401a3          	sb	zero,-93(s0)
    if (link("bd", name) != 0) {
    1038:	85d2                	mv	a1,s4
    103a:	854e                	mv	a0,s3
    103c:	00005097          	auipc	ra,0x5
    1040:	b38080e7          	jalr	-1224(ra) # 5b74 <link>
    1044:	84aa                	mv	s1,a0
    1046:	e959                	bnez	a0,10dc <bigdir+0x130>
  for (i = 0; i < N; i++) {
    1048:	2905                	addiw	s2,s2,1
    104a:	fd6910e3          	bne	s2,s6,100a <bigdir+0x5e>
  unlink("bd");
    104e:	00005517          	auipc	a0,0x5
    1052:	70250513          	addi	a0,a0,1794 # 6750 <malloc+0x812>
    1056:	00005097          	auipc	ra,0x5
    105a:	b0e080e7          	jalr	-1266(ra) # 5b64 <unlink>
    name[0] = 'x';
    105e:	07800993          	li	s3,120
    if (unlink(name) != 0) {
    1062:	fa040913          	addi	s2,s0,-96
  for (i = 0; i < N; i++) {
    1066:	1f400a13          	li	s4,500
    name[0] = 'x';
    106a:	fb340023          	sb	s3,-96(s0)
    name[1] = '0' + (i / 64);
    106e:	41f4d71b          	sraiw	a4,s1,0x1f
    1072:	01a7571b          	srliw	a4,a4,0x1a
    1076:	009707bb          	addw	a5,a4,s1
    107a:	4067d69b          	sraiw	a3,a5,0x6
    107e:	0306869b          	addiw	a3,a3,48
    1082:	fad400a3          	sb	a3,-95(s0)
    name[2] = '0' + (i % 64);
    1086:	03f7f793          	andi	a5,a5,63
    108a:	9f99                	subw	a5,a5,a4
    108c:	0307879b          	addiw	a5,a5,48
    1090:	faf40123          	sb	a5,-94(s0)
    name[3] = '\0';
    1094:	fa0401a3          	sb	zero,-93(s0)
    if (unlink(name) != 0) {
    1098:	854a                	mv	a0,s2
    109a:	00005097          	auipc	ra,0x5
    109e:	aca080e7          	jalr	-1334(ra) # 5b64 <unlink>
    10a2:	ed29                	bnez	a0,10fc <bigdir+0x150>
  for (i = 0; i < N; i++) {
    10a4:	2485                	addiw	s1,s1,1
    10a6:	fd4492e3          	bne	s1,s4,106a <bigdir+0xbe>
}
    10aa:	60e6                	ld	ra,88(sp)
    10ac:	6446                	ld	s0,80(sp)
    10ae:	64a6                	ld	s1,72(sp)
    10b0:	6906                	ld	s2,64(sp)
    10b2:	79e2                	ld	s3,56(sp)
    10b4:	7a42                	ld	s4,48(sp)
    10b6:	7aa2                	ld	s5,40(sp)
    10b8:	7b02                	ld	s6,32(sp)
    10ba:	6be2                	ld	s7,24(sp)
    10bc:	6125                	addi	sp,sp,96
    10be:	8082                	ret
    printf("%s: bigdir create failed\n", s);
    10c0:	85de                	mv	a1,s7
    10c2:	00005517          	auipc	a0,0x5
    10c6:	69650513          	addi	a0,a0,1686 # 6758 <malloc+0x81a>
    10ca:	00005097          	auipc	ra,0x5
    10ce:	db8080e7          	jalr	-584(ra) # 5e82 <printf>
    exit(1);
    10d2:	4505                	li	a0,1
    10d4:	00005097          	auipc	ra,0x5
    10d8:	a40080e7          	jalr	-1472(ra) # 5b14 <exit>
      printf("%s: bigdir link(bd, %s) failed\n", s, name);
    10dc:	fa040613          	addi	a2,s0,-96
    10e0:	85de                	mv	a1,s7
    10e2:	00005517          	auipc	a0,0x5
    10e6:	69650513          	addi	a0,a0,1686 # 6778 <malloc+0x83a>
    10ea:	00005097          	auipc	ra,0x5
    10ee:	d98080e7          	jalr	-616(ra) # 5e82 <printf>
      exit(1);
    10f2:	4505                	li	a0,1
    10f4:	00005097          	auipc	ra,0x5
    10f8:	a20080e7          	jalr	-1504(ra) # 5b14 <exit>
      printf("%s: bigdir unlink failed", s);
    10fc:	85de                	mv	a1,s7
    10fe:	00005517          	auipc	a0,0x5
    1102:	69a50513          	addi	a0,a0,1690 # 6798 <malloc+0x85a>
    1106:	00005097          	auipc	ra,0x5
    110a:	d7c080e7          	jalr	-644(ra) # 5e82 <printf>
      exit(1);
    110e:	4505                	li	a0,1
    1110:	00005097          	auipc	ra,0x5
    1114:	a04080e7          	jalr	-1532(ra) # 5b14 <exit>

0000000000001118 <validatetest>:
void validatetest(char *s) {
    1118:	7139                	addi	sp,sp,-64
    111a:	fc06                	sd	ra,56(sp)
    111c:	f822                	sd	s0,48(sp)
    111e:	f426                	sd	s1,40(sp)
    1120:	f04a                	sd	s2,32(sp)
    1122:	ec4e                	sd	s3,24(sp)
    1124:	e852                	sd	s4,16(sp)
    1126:	e456                	sd	s5,8(sp)
    1128:	e05a                	sd	s6,0(sp)
    112a:	0080                	addi	s0,sp,64
    112c:	8b2a                	mv	s6,a0
  for (p = 0; p <= (uint)hi; p += PGSIZE) {
    112e:	4481                	li	s1,0
    if (link("nosuchfile", (char *)p) != -1) {
    1130:	00005997          	auipc	s3,0x5
    1134:	68898993          	addi	s3,s3,1672 # 67b8 <malloc+0x87a>
    1138:	597d                	li	s2,-1
  for (p = 0; p <= (uint)hi; p += PGSIZE) {
    113a:	6a85                	lui	s5,0x1
    113c:	00114a37          	lui	s4,0x114
    if (link("nosuchfile", (char *)p) != -1) {
    1140:	85a6                	mv	a1,s1
    1142:	854e                	mv	a0,s3
    1144:	00005097          	auipc	ra,0x5
    1148:	a30080e7          	jalr	-1488(ra) # 5b74 <link>
    114c:	01251f63          	bne	a0,s2,116a <validatetest+0x52>
  for (p = 0; p <= (uint)hi; p += PGSIZE) {
    1150:	94d6                	add	s1,s1,s5
    1152:	ff4497e3          	bne	s1,s4,1140 <validatetest+0x28>
}
    1156:	70e2                	ld	ra,56(sp)
    1158:	7442                	ld	s0,48(sp)
    115a:	74a2                	ld	s1,40(sp)
    115c:	7902                	ld	s2,32(sp)
    115e:	69e2                	ld	s3,24(sp)
    1160:	6a42                	ld	s4,16(sp)
    1162:	6aa2                	ld	s5,8(sp)
    1164:	6b02                	ld	s6,0(sp)
    1166:	6121                	addi	sp,sp,64
    1168:	8082                	ret
      printf("%s: link should not succeed\n", s);
    116a:	85da                	mv	a1,s6
    116c:	00005517          	auipc	a0,0x5
    1170:	65c50513          	addi	a0,a0,1628 # 67c8 <malloc+0x88a>
    1174:	00005097          	auipc	ra,0x5
    1178:	d0e080e7          	jalr	-754(ra) # 5e82 <printf>
      exit(1);
    117c:	4505                	li	a0,1
    117e:	00005097          	auipc	ra,0x5
    1182:	996080e7          	jalr	-1642(ra) # 5b14 <exit>

0000000000001186 <pgbug>:
}

// regression test. copyin(), copyout(), and copyinstr() used to cast
// the virtual page address to uint, which (with certain wild system
// call arguments) resulted in a kernel page faults.
void pgbug(char *s) {
    1186:	7179                	addi	sp,sp,-48
    1188:	f406                	sd	ra,40(sp)
    118a:	f022                	sd	s0,32(sp)
    118c:	ec26                	sd	s1,24(sp)
    118e:	1800                	addi	s0,sp,48
  char *argv[1];
  argv[0] = 0;
    1190:	fc043c23          	sd	zero,-40(s0)
  exec((char *)0xeaeb0b5b00002f5e, argv);
    1194:	eaeb14b7          	lui	s1,0xeaeb1
    1198:	b5b48493          	addi	s1,s1,-1189 # ffffffffeaeb0b5b <__BSS_END__+0xffffffffeaea06f3>
    119c:	04d2                	slli	s1,s1,0x14
    119e:	048d                	addi	s1,s1,3
    11a0:	04b2                	slli	s1,s1,0xc
    11a2:	f5e48493          	addi	s1,s1,-162
    11a6:	fd840593          	addi	a1,s0,-40
    11aa:	8526                	mv	a0,s1
    11ac:	00005097          	auipc	ra,0x5
    11b0:	9a0080e7          	jalr	-1632(ra) # 5b4c <exec>

  pipe((int *)0xeaeb0b5b00002f5e);
    11b4:	8526                	mv	a0,s1
    11b6:	00005097          	auipc	ra,0x5
    11ba:	96e080e7          	jalr	-1682(ra) # 5b24 <pipe>

  exit(0);
    11be:	4501                	li	a0,0
    11c0:	00005097          	auipc	ra,0x5
    11c4:	954080e7          	jalr	-1708(ra) # 5b14 <exit>

00000000000011c8 <badarg>:
  exit(0);
}

// regression test. test whether exec() leaks memory if one of the
// arguments is invalid. the test passes if the kernel doesn't panic.
void badarg(char *s) {
    11c8:	7139                	addi	sp,sp,-64
    11ca:	fc06                	sd	ra,56(sp)
    11cc:	f822                	sd	s0,48(sp)
    11ce:	f426                	sd	s1,40(sp)
    11d0:	f04a                	sd	s2,32(sp)
    11d2:	ec4e                	sd	s3,24(sp)
    11d4:	e852                	sd	s4,16(sp)
    11d6:	0080                	addi	s0,sp,64
    11d8:	64b1                	lui	s1,0xc
    11da:	35048493          	addi	s1,s1,848 # c350 <uninit+0x1608>
  for (int i = 0; i < 50000; i++) {
    char *argv[2];
    argv[0] = (char *)0xffffffff;
    11de:	597d                	li	s2,-1
    11e0:	02095913          	srli	s2,s2,0x20
    argv[1] = 0;
    exec("echo", argv);
    11e4:	fc040a13          	addi	s4,s0,-64
    11e8:	00005997          	auipc	s3,0x5
    11ec:	e8898993          	addi	s3,s3,-376 # 6070 <malloc+0x132>
    argv[0] = (char *)0xffffffff;
    11f0:	fd243023          	sd	s2,-64(s0)
    argv[1] = 0;
    11f4:	fc043423          	sd	zero,-56(s0)
    exec("echo", argv);
    11f8:	85d2                	mv	a1,s4
    11fa:	854e                	mv	a0,s3
    11fc:	00005097          	auipc	ra,0x5
    1200:	950080e7          	jalr	-1712(ra) # 5b4c <exec>
  for (int i = 0; i < 50000; i++) {
    1204:	34fd                	addiw	s1,s1,-1
    1206:	f4ed                	bnez	s1,11f0 <badarg+0x28>
  }

  exit(0);
    1208:	4501                	li	a0,0
    120a:	00005097          	auipc	ra,0x5
    120e:	90a080e7          	jalr	-1782(ra) # 5b14 <exit>

0000000000001212 <copyinstr2>:
void copyinstr2(char *s) {
    1212:	7155                	addi	sp,sp,-208
    1214:	e586                	sd	ra,200(sp)
    1216:	e1a2                	sd	s0,192(sp)
    1218:	0980                	addi	s0,sp,208
  for (int i = 0; i < MAXPATH; i++)
    121a:	f6840793          	addi	a5,s0,-152
    121e:	fe840693          	addi	a3,s0,-24
    b[i] = 'x';
    1222:	07800713          	li	a4,120
    1226:	00e78023          	sb	a4,0(a5)
  for (int i = 0; i < MAXPATH; i++)
    122a:	0785                	addi	a5,a5,1
    122c:	fed79de3          	bne	a5,a3,1226 <copyinstr2+0x14>
  b[MAXPATH] = '\0';
    1230:	fe040423          	sb	zero,-24(s0)
  int ret = unlink(b);
    1234:	f6840513          	addi	a0,s0,-152
    1238:	00005097          	auipc	ra,0x5
    123c:	92c080e7          	jalr	-1748(ra) # 5b64 <unlink>
  if (ret != -1) {
    1240:	57fd                	li	a5,-1
    1242:	0ef51063          	bne	a0,a5,1322 <copyinstr2+0x110>
  int fd = open(b, O_CREATE | O_WRONLY);
    1246:	20100593          	li	a1,513
    124a:	f6840513          	addi	a0,s0,-152
    124e:	00005097          	auipc	ra,0x5
    1252:	906080e7          	jalr	-1786(ra) # 5b54 <open>
  if (fd != -1) {
    1256:	57fd                	li	a5,-1
    1258:	0ef51563          	bne	a0,a5,1342 <copyinstr2+0x130>
  ret = link(b, b);
    125c:	f6840513          	addi	a0,s0,-152
    1260:	85aa                	mv	a1,a0
    1262:	00005097          	auipc	ra,0x5
    1266:	912080e7          	jalr	-1774(ra) # 5b74 <link>
  if (ret != -1) {
    126a:	57fd                	li	a5,-1
    126c:	0ef51b63          	bne	a0,a5,1362 <copyinstr2+0x150>
  char *args[] = {"xx", 0};
    1270:	00006797          	auipc	a5,0x6
    1274:	75078793          	addi	a5,a5,1872 # 79c0 <malloc+0x1a82>
    1278:	f4f43c23          	sd	a5,-168(s0)
    127c:	f6043023          	sd	zero,-160(s0)
  ret = exec(b, args);
    1280:	f5840593          	addi	a1,s0,-168
    1284:	f6840513          	addi	a0,s0,-152
    1288:	00005097          	auipc	ra,0x5
    128c:	8c4080e7          	jalr	-1852(ra) # 5b4c <exec>
  if (ret != -1) {
    1290:	57fd                	li	a5,-1
    1292:	0ef51963          	bne	a0,a5,1384 <copyinstr2+0x172>
  int pid = fork();
    1296:	00005097          	auipc	ra,0x5
    129a:	876080e7          	jalr	-1930(ra) # 5b0c <fork>
  if (pid < 0) {
    129e:	10054363          	bltz	a0,13a4 <copyinstr2+0x192>
  if (pid == 0) {
    12a2:	12051463          	bnez	a0,13ca <copyinstr2+0x1b8>
    12a6:	00009797          	auipc	a5,0x9
    12aa:	a9a78793          	addi	a5,a5,-1382 # 9d40 <big.0>
    12ae:	0000a697          	auipc	a3,0xa
    12b2:	a9268693          	addi	a3,a3,-1390 # ad40 <__global_pointer$+0x90c>
      big[i] = 'x';
    12b6:	07800713          	li	a4,120
    12ba:	00e78023          	sb	a4,0(a5)
    for (int i = 0; i < PGSIZE; i++)
    12be:	0785                	addi	a5,a5,1
    12c0:	fed79de3          	bne	a5,a3,12ba <copyinstr2+0xa8>
    big[PGSIZE] = '\0';
    12c4:	0000a797          	auipc	a5,0xa
    12c8:	a6078e23          	sb	zero,-1412(a5) # ad40 <__global_pointer$+0x90c>
    char *args2[] = {big, big, big, 0};
    12cc:	00007797          	auipc	a5,0x7
    12d0:	13c78793          	addi	a5,a5,316 # 8408 <malloc+0x24ca>
    12d4:	6390                	ld	a2,0(a5)
    12d6:	6794                	ld	a3,8(a5)
    12d8:	6b98                	ld	a4,16(a5)
    12da:	f2c43823          	sd	a2,-208(s0)
    12de:	f2d43c23          	sd	a3,-200(s0)
    12e2:	f4e43023          	sd	a4,-192(s0)
    12e6:	6f9c                	ld	a5,24(a5)
    12e8:	f4f43423          	sd	a5,-184(s0)
    ret = exec("echo", args2);
    12ec:	f3040593          	addi	a1,s0,-208
    12f0:	00005517          	auipc	a0,0x5
    12f4:	d8050513          	addi	a0,a0,-640 # 6070 <malloc+0x132>
    12f8:	00005097          	auipc	ra,0x5
    12fc:	854080e7          	jalr	-1964(ra) # 5b4c <exec>
    if (ret != -1) {
    1300:	57fd                	li	a5,-1
    1302:	0af50e63          	beq	a0,a5,13be <copyinstr2+0x1ac>
      printf("exec(echo, BIG) returned %d, not -1\n", fd);
    1306:	85be                	mv	a1,a5
    1308:	00005517          	auipc	a0,0x5
    130c:	56850513          	addi	a0,a0,1384 # 6870 <malloc+0x932>
    1310:	00005097          	auipc	ra,0x5
    1314:	b72080e7          	jalr	-1166(ra) # 5e82 <printf>
      exit(1);
    1318:	4505                	li	a0,1
    131a:	00004097          	auipc	ra,0x4
    131e:	7fa080e7          	jalr	2042(ra) # 5b14 <exit>
    printf("unlink(%s) returned %d, not -1\n", b, ret);
    1322:	862a                	mv	a2,a0
    1324:	f6840593          	addi	a1,s0,-152
    1328:	00005517          	auipc	a0,0x5
    132c:	4c050513          	addi	a0,a0,1216 # 67e8 <malloc+0x8aa>
    1330:	00005097          	auipc	ra,0x5
    1334:	b52080e7          	jalr	-1198(ra) # 5e82 <printf>
    exit(1);
    1338:	4505                	li	a0,1
    133a:	00004097          	auipc	ra,0x4
    133e:	7da080e7          	jalr	2010(ra) # 5b14 <exit>
    printf("open(%s) returned %d, not -1\n", b, fd);
    1342:	862a                	mv	a2,a0
    1344:	f6840593          	addi	a1,s0,-152
    1348:	00005517          	auipc	a0,0x5
    134c:	4c050513          	addi	a0,a0,1216 # 6808 <malloc+0x8ca>
    1350:	00005097          	auipc	ra,0x5
    1354:	b32080e7          	jalr	-1230(ra) # 5e82 <printf>
    exit(1);
    1358:	4505                	li	a0,1
    135a:	00004097          	auipc	ra,0x4
    135e:	7ba080e7          	jalr	1978(ra) # 5b14 <exit>
    printf("link(%s, %s) returned %d, not -1\n", b, b, ret);
    1362:	f6840593          	addi	a1,s0,-152
    1366:	86aa                	mv	a3,a0
    1368:	862e                	mv	a2,a1
    136a:	00005517          	auipc	a0,0x5
    136e:	4be50513          	addi	a0,a0,1214 # 6828 <malloc+0x8ea>
    1372:	00005097          	auipc	ra,0x5
    1376:	b10080e7          	jalr	-1264(ra) # 5e82 <printf>
    exit(1);
    137a:	4505                	li	a0,1
    137c:	00004097          	auipc	ra,0x4
    1380:	798080e7          	jalr	1944(ra) # 5b14 <exit>
    printf("exec(%s) returned %d, not -1\n", b, fd);
    1384:	863e                	mv	a2,a5
    1386:	f6840593          	addi	a1,s0,-152
    138a:	00005517          	auipc	a0,0x5
    138e:	4c650513          	addi	a0,a0,1222 # 6850 <malloc+0x912>
    1392:	00005097          	auipc	ra,0x5
    1396:	af0080e7          	jalr	-1296(ra) # 5e82 <printf>
    exit(1);
    139a:	4505                	li	a0,1
    139c:	00004097          	auipc	ra,0x4
    13a0:	778080e7          	jalr	1912(ra) # 5b14 <exit>
    printf("fork failed\n");
    13a4:	00006517          	auipc	a0,0x6
    13a8:	94450513          	addi	a0,a0,-1724 # 6ce8 <malloc+0xdaa>
    13ac:	00005097          	auipc	ra,0x5
    13b0:	ad6080e7          	jalr	-1322(ra) # 5e82 <printf>
    exit(1);
    13b4:	4505                	li	a0,1
    13b6:	00004097          	auipc	ra,0x4
    13ba:	75e080e7          	jalr	1886(ra) # 5b14 <exit>
    exit(747); // OK
    13be:	2eb00513          	li	a0,747
    13c2:	00004097          	auipc	ra,0x4
    13c6:	752080e7          	jalr	1874(ra) # 5b14 <exit>
  int st = 0;
    13ca:	f4042a23          	sw	zero,-172(s0)
  wait(&st);
    13ce:	f5440513          	addi	a0,s0,-172
    13d2:	00004097          	auipc	ra,0x4
    13d6:	74a080e7          	jalr	1866(ra) # 5b1c <wait>
  if (st != 747) {
    13da:	f5442703          	lw	a4,-172(s0)
    13de:	2eb00793          	li	a5,747
    13e2:	00f71663          	bne	a4,a5,13ee <copyinstr2+0x1dc>
}
    13e6:	60ae                	ld	ra,200(sp)
    13e8:	640e                	ld	s0,192(sp)
    13ea:	6169                	addi	sp,sp,208
    13ec:	8082                	ret
    printf("exec(echo, BIG) succeeded, should have failed\n");
    13ee:	00005517          	auipc	a0,0x5
    13f2:	4aa50513          	addi	a0,a0,1194 # 6898 <malloc+0x95a>
    13f6:	00005097          	auipc	ra,0x5
    13fa:	a8c080e7          	jalr	-1396(ra) # 5e82 <printf>
    exit(1);
    13fe:	4505                	li	a0,1
    1400:	00004097          	auipc	ra,0x4
    1404:	714080e7          	jalr	1812(ra) # 5b14 <exit>

0000000000001408 <truncate3>:
void truncate3(char *s) {
    1408:	7175                	addi	sp,sp,-144
    140a:	e506                	sd	ra,136(sp)
    140c:	e122                	sd	s0,128(sp)
    140e:	fc66                	sd	s9,56(sp)
    1410:	0900                	addi	s0,sp,144
    1412:	8caa                	mv	s9,a0
  close(open("truncfile", O_CREATE | O_TRUNC | O_WRONLY));
    1414:	60100593          	li	a1,1537
    1418:	00005517          	auipc	a0,0x5
    141c:	cb050513          	addi	a0,a0,-848 # 60c8 <malloc+0x18a>
    1420:	00004097          	auipc	ra,0x4
    1424:	734080e7          	jalr	1844(ra) # 5b54 <open>
    1428:	00004097          	auipc	ra,0x4
    142c:	714080e7          	jalr	1812(ra) # 5b3c <close>
  pid = fork();
    1430:	00004097          	auipc	ra,0x4
    1434:	6dc080e7          	jalr	1756(ra) # 5b0c <fork>
  if (pid < 0) {
    1438:	08054b63          	bltz	a0,14ce <truncate3+0xc6>
  if (pid == 0) {
    143c:	ed65                	bnez	a0,1534 <truncate3+0x12c>
    143e:	fca6                	sd	s1,120(sp)
    1440:	f8ca                	sd	s2,112(sp)
    1442:	f4ce                	sd	s3,104(sp)
    1444:	f0d2                	sd	s4,96(sp)
    1446:	ecd6                	sd	s5,88(sp)
    1448:	e8da                	sd	s6,80(sp)
    144a:	e4de                	sd	s7,72(sp)
    144c:	e0e2                	sd	s8,64(sp)
    144e:	06400913          	li	s2,100
      int fd = open("truncfile", O_WRONLY);
    1452:	4a85                	li	s5,1
    1454:	00005997          	auipc	s3,0x5
    1458:	c7498993          	addi	s3,s3,-908 # 60c8 <malloc+0x18a>
      int n = write(fd, "1234567890", 10);
    145c:	4a29                	li	s4,10
    145e:	00005b17          	auipc	s6,0x5
    1462:	49ab0b13          	addi	s6,s6,1178 # 68f8 <malloc+0x9ba>
      read(fd, buf, sizeof(buf));
    1466:	f7840c13          	addi	s8,s0,-136
    146a:	02000b93          	li	s7,32
      int fd = open("truncfile", O_WRONLY);
    146e:	85d6                	mv	a1,s5
    1470:	854e                	mv	a0,s3
    1472:	00004097          	auipc	ra,0x4
    1476:	6e2080e7          	jalr	1762(ra) # 5b54 <open>
    147a:	84aa                	mv	s1,a0
      if (fd < 0) {
    147c:	06054f63          	bltz	a0,14fa <truncate3+0xf2>
      int n = write(fd, "1234567890", 10);
    1480:	8652                	mv	a2,s4
    1482:	85da                	mv	a1,s6
    1484:	00004097          	auipc	ra,0x4
    1488:	6b0080e7          	jalr	1712(ra) # 5b34 <write>
      if (n != 10) {
    148c:	09451563          	bne	a0,s4,1516 <truncate3+0x10e>
      close(fd);
    1490:	8526                	mv	a0,s1
    1492:	00004097          	auipc	ra,0x4
    1496:	6aa080e7          	jalr	1706(ra) # 5b3c <close>
      fd = open("truncfile", O_RDONLY);
    149a:	4581                	li	a1,0
    149c:	854e                	mv	a0,s3
    149e:	00004097          	auipc	ra,0x4
    14a2:	6b6080e7          	jalr	1718(ra) # 5b54 <open>
    14a6:	84aa                	mv	s1,a0
      read(fd, buf, sizeof(buf));
    14a8:	865e                	mv	a2,s7
    14aa:	85e2                	mv	a1,s8
    14ac:	00004097          	auipc	ra,0x4
    14b0:	680080e7          	jalr	1664(ra) # 5b2c <read>
      close(fd);
    14b4:	8526                	mv	a0,s1
    14b6:	00004097          	auipc	ra,0x4
    14ba:	686080e7          	jalr	1670(ra) # 5b3c <close>
    for (int i = 0; i < 100; i++) {
    14be:	397d                	addiw	s2,s2,-1
    14c0:	fa0917e3          	bnez	s2,146e <truncate3+0x66>
    exit(0);
    14c4:	4501                	li	a0,0
    14c6:	00004097          	auipc	ra,0x4
    14ca:	64e080e7          	jalr	1614(ra) # 5b14 <exit>
    14ce:	fca6                	sd	s1,120(sp)
    14d0:	f8ca                	sd	s2,112(sp)
    14d2:	f4ce                	sd	s3,104(sp)
    14d4:	f0d2                	sd	s4,96(sp)
    14d6:	ecd6                	sd	s5,88(sp)
    14d8:	e8da                	sd	s6,80(sp)
    14da:	e4de                	sd	s7,72(sp)
    14dc:	e0e2                	sd	s8,64(sp)
    printf("%s: fork failed\n", s);
    14de:	85e6                	mv	a1,s9
    14e0:	00005517          	auipc	a0,0x5
    14e4:	3e850513          	addi	a0,a0,1000 # 68c8 <malloc+0x98a>
    14e8:	00005097          	auipc	ra,0x5
    14ec:	99a080e7          	jalr	-1638(ra) # 5e82 <printf>
    exit(1);
    14f0:	4505                	li	a0,1
    14f2:	00004097          	auipc	ra,0x4
    14f6:	622080e7          	jalr	1570(ra) # 5b14 <exit>
        printf("%s: open failed\n", s);
    14fa:	85e6                	mv	a1,s9
    14fc:	00005517          	auipc	a0,0x5
    1500:	3e450513          	addi	a0,a0,996 # 68e0 <malloc+0x9a2>
    1504:	00005097          	auipc	ra,0x5
    1508:	97e080e7          	jalr	-1666(ra) # 5e82 <printf>
        exit(1);
    150c:	4505                	li	a0,1
    150e:	00004097          	auipc	ra,0x4
    1512:	606080e7          	jalr	1542(ra) # 5b14 <exit>
        printf("%s: write got %d, expected 10\n", s, n);
    1516:	862a                	mv	a2,a0
    1518:	85e6                	mv	a1,s9
    151a:	00005517          	auipc	a0,0x5
    151e:	3ee50513          	addi	a0,a0,1006 # 6908 <malloc+0x9ca>
    1522:	00005097          	auipc	ra,0x5
    1526:	960080e7          	jalr	-1696(ra) # 5e82 <printf>
        exit(1);
    152a:	4505                	li	a0,1
    152c:	00004097          	auipc	ra,0x4
    1530:	5e8080e7          	jalr	1512(ra) # 5b14 <exit>
    1534:	fca6                	sd	s1,120(sp)
    1536:	f8ca                	sd	s2,112(sp)
    1538:	f4ce                	sd	s3,104(sp)
    153a:	f0d2                	sd	s4,96(sp)
    153c:	ecd6                	sd	s5,88(sp)
    153e:	e8da                	sd	s6,80(sp)
    1540:	09600913          	li	s2,150
    int fd = open("truncfile", O_CREATE | O_WRONLY | O_TRUNC);
    1544:	60100a93          	li	s5,1537
    1548:	00005a17          	auipc	s4,0x5
    154c:	b80a0a13          	addi	s4,s4,-1152 # 60c8 <malloc+0x18a>
    int n = write(fd, "xxx", 3);
    1550:	498d                	li	s3,3
    1552:	00005b17          	auipc	s6,0x5
    1556:	3d6b0b13          	addi	s6,s6,982 # 6928 <malloc+0x9ea>
    int fd = open("truncfile", O_CREATE | O_WRONLY | O_TRUNC);
    155a:	85d6                	mv	a1,s5
    155c:	8552                	mv	a0,s4
    155e:	00004097          	auipc	ra,0x4
    1562:	5f6080e7          	jalr	1526(ra) # 5b54 <open>
    1566:	84aa                	mv	s1,a0
    if (fd < 0) {
    1568:	04054863          	bltz	a0,15b8 <truncate3+0x1b0>
    int n = write(fd, "xxx", 3);
    156c:	864e                	mv	a2,s3
    156e:	85da                	mv	a1,s6
    1570:	00004097          	auipc	ra,0x4
    1574:	5c4080e7          	jalr	1476(ra) # 5b34 <write>
    if (n != 3) {
    1578:	07351063          	bne	a0,s3,15d8 <truncate3+0x1d0>
    close(fd);
    157c:	8526                	mv	a0,s1
    157e:	00004097          	auipc	ra,0x4
    1582:	5be080e7          	jalr	1470(ra) # 5b3c <close>
  for (int i = 0; i < 150; i++) {
    1586:	397d                	addiw	s2,s2,-1
    1588:	fc0919e3          	bnez	s2,155a <truncate3+0x152>
    158c:	e4de                	sd	s7,72(sp)
    158e:	e0e2                	sd	s8,64(sp)
  wait(&xstatus);
    1590:	f9c40513          	addi	a0,s0,-100
    1594:	00004097          	auipc	ra,0x4
    1598:	588080e7          	jalr	1416(ra) # 5b1c <wait>
  unlink("truncfile");
    159c:	00005517          	auipc	a0,0x5
    15a0:	b2c50513          	addi	a0,a0,-1236 # 60c8 <malloc+0x18a>
    15a4:	00004097          	auipc	ra,0x4
    15a8:	5c0080e7          	jalr	1472(ra) # 5b64 <unlink>
  exit(xstatus);
    15ac:	f9c42503          	lw	a0,-100(s0)
    15b0:	00004097          	auipc	ra,0x4
    15b4:	564080e7          	jalr	1380(ra) # 5b14 <exit>
    15b8:	e4de                	sd	s7,72(sp)
    15ba:	e0e2                	sd	s8,64(sp)
      printf("%s: open failed\n", s);
    15bc:	85e6                	mv	a1,s9
    15be:	00005517          	auipc	a0,0x5
    15c2:	32250513          	addi	a0,a0,802 # 68e0 <malloc+0x9a2>
    15c6:	00005097          	auipc	ra,0x5
    15ca:	8bc080e7          	jalr	-1860(ra) # 5e82 <printf>
      exit(1);
    15ce:	4505                	li	a0,1
    15d0:	00004097          	auipc	ra,0x4
    15d4:	544080e7          	jalr	1348(ra) # 5b14 <exit>
    15d8:	e4de                	sd	s7,72(sp)
    15da:	e0e2                	sd	s8,64(sp)
      printf("%s: write got %d, expected 3\n", s, n);
    15dc:	862a                	mv	a2,a0
    15de:	85e6                	mv	a1,s9
    15e0:	00005517          	auipc	a0,0x5
    15e4:	35050513          	addi	a0,a0,848 # 6930 <malloc+0x9f2>
    15e8:	00005097          	auipc	ra,0x5
    15ec:	89a080e7          	jalr	-1894(ra) # 5e82 <printf>
      exit(1);
    15f0:	4505                	li	a0,1
    15f2:	00004097          	auipc	ra,0x4
    15f6:	522080e7          	jalr	1314(ra) # 5b14 <exit>

00000000000015fa <exectest>:
void exectest(char *s) {
    15fa:	715d                	addi	sp,sp,-80
    15fc:	e486                	sd	ra,72(sp)
    15fe:	e0a2                	sd	s0,64(sp)
    1600:	f84a                	sd	s2,48(sp)
    1602:	0880                	addi	s0,sp,80
    1604:	892a                	mv	s2,a0
  char *echoargv[] = {"echo", "OK", 0};
    1606:	00005797          	auipc	a5,0x5
    160a:	a6a78793          	addi	a5,a5,-1430 # 6070 <malloc+0x132>
    160e:	fcf43023          	sd	a5,-64(s0)
    1612:	00005797          	auipc	a5,0x5
    1616:	33e78793          	addi	a5,a5,830 # 6950 <malloc+0xa12>
    161a:	fcf43423          	sd	a5,-56(s0)
    161e:	fc043823          	sd	zero,-48(s0)
  unlink("echo-ok");
    1622:	00005517          	auipc	a0,0x5
    1626:	33650513          	addi	a0,a0,822 # 6958 <malloc+0xa1a>
    162a:	00004097          	auipc	ra,0x4
    162e:	53a080e7          	jalr	1338(ra) # 5b64 <unlink>
  pid = fork();
    1632:	00004097          	auipc	ra,0x4
    1636:	4da080e7          	jalr	1242(ra) # 5b0c <fork>
  if (pid < 0) {
    163a:	04054763          	bltz	a0,1688 <exectest+0x8e>
    163e:	fc26                	sd	s1,56(sp)
    1640:	84aa                	mv	s1,a0
  if (pid == 0) {
    1642:	ed41                	bnez	a0,16da <exectest+0xe0>
    close(1);
    1644:	4505                	li	a0,1
    1646:	00004097          	auipc	ra,0x4
    164a:	4f6080e7          	jalr	1270(ra) # 5b3c <close>
    fd = open("echo-ok", O_CREATE | O_WRONLY);
    164e:	20100593          	li	a1,513
    1652:	00005517          	auipc	a0,0x5
    1656:	30650513          	addi	a0,a0,774 # 6958 <malloc+0xa1a>
    165a:	00004097          	auipc	ra,0x4
    165e:	4fa080e7          	jalr	1274(ra) # 5b54 <open>
    if (fd < 0) {
    1662:	04054263          	bltz	a0,16a6 <exectest+0xac>
    if (fd != 1) {
    1666:	4785                	li	a5,1
    1668:	04f50d63          	beq	a0,a5,16c2 <exectest+0xc8>
      printf("%s: wrong fd\n", s);
    166c:	85ca                	mv	a1,s2
    166e:	00005517          	auipc	a0,0x5
    1672:	30a50513          	addi	a0,a0,778 # 6978 <malloc+0xa3a>
    1676:	00005097          	auipc	ra,0x5
    167a:	80c080e7          	jalr	-2036(ra) # 5e82 <printf>
      exit(1);
    167e:	4505                	li	a0,1
    1680:	00004097          	auipc	ra,0x4
    1684:	494080e7          	jalr	1172(ra) # 5b14 <exit>
    1688:	fc26                	sd	s1,56(sp)
    printf("%s: fork failed\n", s);
    168a:	85ca                	mv	a1,s2
    168c:	00005517          	auipc	a0,0x5
    1690:	23c50513          	addi	a0,a0,572 # 68c8 <malloc+0x98a>
    1694:	00004097          	auipc	ra,0x4
    1698:	7ee080e7          	jalr	2030(ra) # 5e82 <printf>
    exit(1);
    169c:	4505                	li	a0,1
    169e:	00004097          	auipc	ra,0x4
    16a2:	476080e7          	jalr	1142(ra) # 5b14 <exit>
      printf("%s: create failed\n", s);
    16a6:	85ca                	mv	a1,s2
    16a8:	00005517          	auipc	a0,0x5
    16ac:	2b850513          	addi	a0,a0,696 # 6960 <malloc+0xa22>
    16b0:	00004097          	auipc	ra,0x4
    16b4:	7d2080e7          	jalr	2002(ra) # 5e82 <printf>
      exit(1);
    16b8:	4505                	li	a0,1
    16ba:	00004097          	auipc	ra,0x4
    16be:	45a080e7          	jalr	1114(ra) # 5b14 <exit>
    if (exec("echo", echoargv) < 0) {
    16c2:	fc040593          	addi	a1,s0,-64
    16c6:	00005517          	auipc	a0,0x5
    16ca:	9aa50513          	addi	a0,a0,-1622 # 6070 <malloc+0x132>
    16ce:	00004097          	auipc	ra,0x4
    16d2:	47e080e7          	jalr	1150(ra) # 5b4c <exec>
    16d6:	02054163          	bltz	a0,16f8 <exectest+0xfe>
  if (wait(&xstatus) != pid) {
    16da:	fdc40513          	addi	a0,s0,-36
    16de:	00004097          	auipc	ra,0x4
    16e2:	43e080e7          	jalr	1086(ra) # 5b1c <wait>
    16e6:	02951763          	bne	a0,s1,1714 <exectest+0x11a>
  if (xstatus != 0)
    16ea:	fdc42503          	lw	a0,-36(s0)
    16ee:	cd0d                	beqz	a0,1728 <exectest+0x12e>
    exit(xstatus);
    16f0:	00004097          	auipc	ra,0x4
    16f4:	424080e7          	jalr	1060(ra) # 5b14 <exit>
      printf("%s: exec echo failed\n", s);
    16f8:	85ca                	mv	a1,s2
    16fa:	00005517          	auipc	a0,0x5
    16fe:	28e50513          	addi	a0,a0,654 # 6988 <malloc+0xa4a>
    1702:	00004097          	auipc	ra,0x4
    1706:	780080e7          	jalr	1920(ra) # 5e82 <printf>
      exit(1);
    170a:	4505                	li	a0,1
    170c:	00004097          	auipc	ra,0x4
    1710:	408080e7          	jalr	1032(ra) # 5b14 <exit>
    printf("%s: wait failed!\n", s);
    1714:	85ca                	mv	a1,s2
    1716:	00005517          	auipc	a0,0x5
    171a:	28a50513          	addi	a0,a0,650 # 69a0 <malloc+0xa62>
    171e:	00004097          	auipc	ra,0x4
    1722:	764080e7          	jalr	1892(ra) # 5e82 <printf>
    1726:	b7d1                	j	16ea <exectest+0xf0>
  fd = open("echo-ok", O_RDONLY);
    1728:	4581                	li	a1,0
    172a:	00005517          	auipc	a0,0x5
    172e:	22e50513          	addi	a0,a0,558 # 6958 <malloc+0xa1a>
    1732:	00004097          	auipc	ra,0x4
    1736:	422080e7          	jalr	1058(ra) # 5b54 <open>
  if (fd < 0) {
    173a:	02054a63          	bltz	a0,176e <exectest+0x174>
  if (read(fd, buf, 2) != 2) {
    173e:	4609                	li	a2,2
    1740:	fb840593          	addi	a1,s0,-72
    1744:	00004097          	auipc	ra,0x4
    1748:	3e8080e7          	jalr	1000(ra) # 5b2c <read>
    174c:	4789                	li	a5,2
    174e:	02f50e63          	beq	a0,a5,178a <exectest+0x190>
    printf("%s: read failed\n", s);
    1752:	85ca                	mv	a1,s2
    1754:	00005517          	auipc	a0,0x5
    1758:	cbc50513          	addi	a0,a0,-836 # 6410 <malloc+0x4d2>
    175c:	00004097          	auipc	ra,0x4
    1760:	726080e7          	jalr	1830(ra) # 5e82 <printf>
    exit(1);
    1764:	4505                	li	a0,1
    1766:	00004097          	auipc	ra,0x4
    176a:	3ae080e7          	jalr	942(ra) # 5b14 <exit>
    printf("%s: open failed\n", s);
    176e:	85ca                	mv	a1,s2
    1770:	00005517          	auipc	a0,0x5
    1774:	17050513          	addi	a0,a0,368 # 68e0 <malloc+0x9a2>
    1778:	00004097          	auipc	ra,0x4
    177c:	70a080e7          	jalr	1802(ra) # 5e82 <printf>
    exit(1);
    1780:	4505                	li	a0,1
    1782:	00004097          	auipc	ra,0x4
    1786:	392080e7          	jalr	914(ra) # 5b14 <exit>
  unlink("echo-ok");
    178a:	00005517          	auipc	a0,0x5
    178e:	1ce50513          	addi	a0,a0,462 # 6958 <malloc+0xa1a>
    1792:	00004097          	auipc	ra,0x4
    1796:	3d2080e7          	jalr	978(ra) # 5b64 <unlink>
  if (buf[0] == 'O' && buf[1] == 'K')
    179a:	fb844703          	lbu	a4,-72(s0)
    179e:	04f00793          	li	a5,79
    17a2:	00f71863          	bne	a4,a5,17b2 <exectest+0x1b8>
    17a6:	fb944703          	lbu	a4,-71(s0)
    17aa:	04b00793          	li	a5,75
    17ae:	02f70063          	beq	a4,a5,17ce <exectest+0x1d4>
    printf("%s: wrong output\n", s);
    17b2:	85ca                	mv	a1,s2
    17b4:	00005517          	auipc	a0,0x5
    17b8:	20450513          	addi	a0,a0,516 # 69b8 <malloc+0xa7a>
    17bc:	00004097          	auipc	ra,0x4
    17c0:	6c6080e7          	jalr	1734(ra) # 5e82 <printf>
    exit(1);
    17c4:	4505                	li	a0,1
    17c6:	00004097          	auipc	ra,0x4
    17ca:	34e080e7          	jalr	846(ra) # 5b14 <exit>
    exit(0);
    17ce:	4501                	li	a0,0
    17d0:	00004097          	auipc	ra,0x4
    17d4:	344080e7          	jalr	836(ra) # 5b14 <exit>

00000000000017d8 <pipe1>:
void pipe1(char *s) {
    17d8:	711d                	addi	sp,sp,-96
    17da:	ec86                	sd	ra,88(sp)
    17dc:	e8a2                	sd	s0,80(sp)
    17de:	e862                	sd	s8,16(sp)
    17e0:	1080                	addi	s0,sp,96
    17e2:	8c2a                	mv	s8,a0
  if (pipe(fds) != 0) {
    17e4:	fa840513          	addi	a0,s0,-88
    17e8:	00004097          	auipc	ra,0x4
    17ec:	33c080e7          	jalr	828(ra) # 5b24 <pipe>
    17f0:	ed35                	bnez	a0,186c <pipe1+0x94>
    17f2:	e4a6                	sd	s1,72(sp)
    17f4:	fc4e                	sd	s3,56(sp)
    17f6:	84aa                	mv	s1,a0
  pid = fork();
    17f8:	00004097          	auipc	ra,0x4
    17fc:	314080e7          	jalr	788(ra) # 5b0c <fork>
    1800:	89aa                	mv	s3,a0
  if (pid == 0) {
    1802:	c951                	beqz	a0,1896 <pipe1+0xbe>
  } else if (pid > 0) {
    1804:	18a05d63          	blez	a0,199e <pipe1+0x1c6>
    1808:	e0ca                	sd	s2,64(sp)
    180a:	f852                	sd	s4,48(sp)
    close(fds[1]);
    180c:	fac42503          	lw	a0,-84(s0)
    1810:	00004097          	auipc	ra,0x4
    1814:	32c080e7          	jalr	812(ra) # 5b3c <close>
    total = 0;
    1818:	89a6                	mv	s3,s1
    cc = 1;
    181a:	4905                	li	s2,1
    while ((n = read(fds[0], buf, cc)) > 0) {
    181c:	0000ca17          	auipc	s4,0xc
    1820:	c3ca0a13          	addi	s4,s4,-964 # d458 <buf>
    1824:	864a                	mv	a2,s2
    1826:	85d2                	mv	a1,s4
    1828:	fa842503          	lw	a0,-88(s0)
    182c:	00004097          	auipc	ra,0x4
    1830:	300080e7          	jalr	768(ra) # 5b2c <read>
    1834:	85aa                	mv	a1,a0
    1836:	10a05963          	blez	a0,1948 <pipe1+0x170>
    183a:	0000c797          	auipc	a5,0xc
    183e:	c1e78793          	addi	a5,a5,-994 # d458 <buf>
    1842:	00b4863b          	addw	a2,s1,a1
        if ((buf[i] & 0xff) != (seq++ & 0xff)) {
    1846:	0007c683          	lbu	a3,0(a5)
    184a:	0ff4f713          	zext.b	a4,s1
    184e:	0ce69b63          	bne	a3,a4,1924 <pipe1+0x14c>
    1852:	2485                	addiw	s1,s1,1
      for (i = 0; i < n; i++) {
    1854:	0785                	addi	a5,a5,1
    1856:	fec498e3          	bne	s1,a2,1846 <pipe1+0x6e>
      total += n;
    185a:	00b989bb          	addw	s3,s3,a1
      cc = cc * 2;
    185e:	0019191b          	slliw	s2,s2,0x1
      if (cc > sizeof(buf))
    1862:	678d                	lui	a5,0x3
    1864:	fd27f0e3          	bgeu	a5,s2,1824 <pipe1+0x4c>
        cc = sizeof(buf);
    1868:	893e                	mv	s2,a5
    186a:	bf6d                	j	1824 <pipe1+0x4c>
    186c:	e4a6                	sd	s1,72(sp)
    186e:	e0ca                	sd	s2,64(sp)
    1870:	fc4e                	sd	s3,56(sp)
    1872:	f852                	sd	s4,48(sp)
    1874:	f456                	sd	s5,40(sp)
    1876:	f05a                	sd	s6,32(sp)
    1878:	ec5e                	sd	s7,24(sp)
    printf("%s: pipe() failed\n", s);
    187a:	85e2                	mv	a1,s8
    187c:	00005517          	auipc	a0,0x5
    1880:	15450513          	addi	a0,a0,340 # 69d0 <malloc+0xa92>
    1884:	00004097          	auipc	ra,0x4
    1888:	5fe080e7          	jalr	1534(ra) # 5e82 <printf>
    exit(1);
    188c:	4505                	li	a0,1
    188e:	00004097          	auipc	ra,0x4
    1892:	286080e7          	jalr	646(ra) # 5b14 <exit>
    1896:	e0ca                	sd	s2,64(sp)
    1898:	f852                	sd	s4,48(sp)
    189a:	f456                	sd	s5,40(sp)
    189c:	f05a                	sd	s6,32(sp)
    189e:	ec5e                	sd	s7,24(sp)
    close(fds[0]);
    18a0:	fa842503          	lw	a0,-88(s0)
    18a4:	00004097          	auipc	ra,0x4
    18a8:	298080e7          	jalr	664(ra) # 5b3c <close>
    for (n = 0; n < N; n++) {
    18ac:	0000cb17          	auipc	s6,0xc
    18b0:	bacb0b13          	addi	s6,s6,-1108 # d458 <buf>
    18b4:	416004bb          	negw	s1,s6
    18b8:	0ff4f493          	zext.b	s1,s1
    18bc:	409b0913          	addi	s2,s6,1033
      if (write(fds[1], buf, SZ) != SZ) {
    18c0:	40900a13          	li	s4,1033
    18c4:	8bda                	mv	s7,s6
    for (n = 0; n < N; n++) {
    18c6:	6a85                	lui	s5,0x1
    18c8:	42da8a93          	addi	s5,s5,1069 # 142d <truncate3+0x25>
void pipe1(char *s) {
    18cc:	87da                	mv	a5,s6
        buf[i] = seq++;
    18ce:	0097873b          	addw	a4,a5,s1
    18d2:	00e78023          	sb	a4,0(a5) # 3000 <fourteen+0xbc>
      for (i = 0; i < SZ; i++)
    18d6:	0785                	addi	a5,a5,1
    18d8:	ff279be3          	bne	a5,s2,18ce <pipe1+0xf6>
      if (write(fds[1], buf, SZ) != SZ) {
    18dc:	8652                	mv	a2,s4
    18de:	85de                	mv	a1,s7
    18e0:	fac42503          	lw	a0,-84(s0)
    18e4:	00004097          	auipc	ra,0x4
    18e8:	250080e7          	jalr	592(ra) # 5b34 <write>
    18ec:	01451e63          	bne	a0,s4,1908 <pipe1+0x130>
    18f0:	4099899b          	addiw	s3,s3,1033
    for (n = 0; n < N; n++) {
    18f4:	24a5                	addiw	s1,s1,9
    18f6:	0ff4f493          	zext.b	s1,s1
    18fa:	fd5999e3          	bne	s3,s5,18cc <pipe1+0xf4>
    exit(0);
    18fe:	4501                	li	a0,0
    1900:	00004097          	auipc	ra,0x4
    1904:	214080e7          	jalr	532(ra) # 5b14 <exit>
        printf("%s: pipe1 oops 1\n", s);
    1908:	85e2                	mv	a1,s8
    190a:	00005517          	auipc	a0,0x5
    190e:	0de50513          	addi	a0,a0,222 # 69e8 <malloc+0xaaa>
    1912:	00004097          	auipc	ra,0x4
    1916:	570080e7          	jalr	1392(ra) # 5e82 <printf>
        exit(1);
    191a:	4505                	li	a0,1
    191c:	00004097          	auipc	ra,0x4
    1920:	1f8080e7          	jalr	504(ra) # 5b14 <exit>
          printf("%s: pipe1 oops 2\n", s);
    1924:	85e2                	mv	a1,s8
    1926:	00005517          	auipc	a0,0x5
    192a:	0da50513          	addi	a0,a0,218 # 6a00 <malloc+0xac2>
    192e:	00004097          	auipc	ra,0x4
    1932:	554080e7          	jalr	1364(ra) # 5e82 <printf>
          return;
    1936:	64a6                	ld	s1,72(sp)
    1938:	6906                	ld	s2,64(sp)
    193a:	79e2                	ld	s3,56(sp)
    193c:	7a42                	ld	s4,48(sp)
}
    193e:	60e6                	ld	ra,88(sp)
    1940:	6446                	ld	s0,80(sp)
    1942:	6c42                	ld	s8,16(sp)
    1944:	6125                	addi	sp,sp,96
    1946:	8082                	ret
    if (total != N * SZ) {
    1948:	6785                	lui	a5,0x1
    194a:	42d78793          	addi	a5,a5,1069 # 142d <truncate3+0x25>
    194e:	02f98363          	beq	s3,a5,1974 <pipe1+0x19c>
    1952:	f456                	sd	s5,40(sp)
    1954:	f05a                	sd	s6,32(sp)
    1956:	ec5e                	sd	s7,24(sp)
      printf("%s: pipe1 oops 3 total %d\n", total);
    1958:	85ce                	mv	a1,s3
    195a:	00005517          	auipc	a0,0x5
    195e:	0be50513          	addi	a0,a0,190 # 6a18 <malloc+0xada>
    1962:	00004097          	auipc	ra,0x4
    1966:	520080e7          	jalr	1312(ra) # 5e82 <printf>
      exit(1);
    196a:	4505                	li	a0,1
    196c:	00004097          	auipc	ra,0x4
    1970:	1a8080e7          	jalr	424(ra) # 5b14 <exit>
    1974:	f456                	sd	s5,40(sp)
    1976:	f05a                	sd	s6,32(sp)
    1978:	ec5e                	sd	s7,24(sp)
    close(fds[0]);
    197a:	fa842503          	lw	a0,-88(s0)
    197e:	00004097          	auipc	ra,0x4
    1982:	1be080e7          	jalr	446(ra) # 5b3c <close>
    wait(&xstatus);
    1986:	fa440513          	addi	a0,s0,-92
    198a:	00004097          	auipc	ra,0x4
    198e:	192080e7          	jalr	402(ra) # 5b1c <wait>
    exit(xstatus);
    1992:	fa442503          	lw	a0,-92(s0)
    1996:	00004097          	auipc	ra,0x4
    199a:	17e080e7          	jalr	382(ra) # 5b14 <exit>
    199e:	e0ca                	sd	s2,64(sp)
    19a0:	f852                	sd	s4,48(sp)
    19a2:	f456                	sd	s5,40(sp)
    19a4:	f05a                	sd	s6,32(sp)
    19a6:	ec5e                	sd	s7,24(sp)
    printf("%s: fork() failed\n", s);
    19a8:	85e2                	mv	a1,s8
    19aa:	00005517          	auipc	a0,0x5
    19ae:	08e50513          	addi	a0,a0,142 # 6a38 <malloc+0xafa>
    19b2:	00004097          	auipc	ra,0x4
    19b6:	4d0080e7          	jalr	1232(ra) # 5e82 <printf>
    exit(1);
    19ba:	4505                	li	a0,1
    19bc:	00004097          	auipc	ra,0x4
    19c0:	158080e7          	jalr	344(ra) # 5b14 <exit>

00000000000019c4 <exitwait>:
void exitwait(char *s) {
    19c4:	715d                	addi	sp,sp,-80
    19c6:	e486                	sd	ra,72(sp)
    19c8:	e0a2                	sd	s0,64(sp)
    19ca:	fc26                	sd	s1,56(sp)
    19cc:	f84a                	sd	s2,48(sp)
    19ce:	f44e                	sd	s3,40(sp)
    19d0:	f052                	sd	s4,32(sp)
    19d2:	ec56                	sd	s5,24(sp)
    19d4:	0880                	addi	s0,sp,80
    19d6:	8aaa                	mv	s5,a0
  for (i = 0; i < 100; i++) {
    19d8:	4901                	li	s2,0
      if (wait(&xstate) != pid) {
    19da:	fbc40993          	addi	s3,s0,-68
  for (i = 0; i < 100; i++) {
    19de:	06400a13          	li	s4,100
    pid = fork();
    19e2:	00004097          	auipc	ra,0x4
    19e6:	12a080e7          	jalr	298(ra) # 5b0c <fork>
    19ea:	84aa                	mv	s1,a0
    if (pid < 0) {
    19ec:	02054a63          	bltz	a0,1a20 <exitwait+0x5c>
    if (pid) {
    19f0:	c151                	beqz	a0,1a74 <exitwait+0xb0>
      if (wait(&xstate) != pid) {
    19f2:	854e                	mv	a0,s3
    19f4:	00004097          	auipc	ra,0x4
    19f8:	128080e7          	jalr	296(ra) # 5b1c <wait>
    19fc:	04951063          	bne	a0,s1,1a3c <exitwait+0x78>
      if (i != xstate) {
    1a00:	fbc42783          	lw	a5,-68(s0)
    1a04:	05279a63          	bne	a5,s2,1a58 <exitwait+0x94>
  for (i = 0; i < 100; i++) {
    1a08:	2905                	addiw	s2,s2,1
    1a0a:	fd491ce3          	bne	s2,s4,19e2 <exitwait+0x1e>
}
    1a0e:	60a6                	ld	ra,72(sp)
    1a10:	6406                	ld	s0,64(sp)
    1a12:	74e2                	ld	s1,56(sp)
    1a14:	7942                	ld	s2,48(sp)
    1a16:	79a2                	ld	s3,40(sp)
    1a18:	7a02                	ld	s4,32(sp)
    1a1a:	6ae2                	ld	s5,24(sp)
    1a1c:	6161                	addi	sp,sp,80
    1a1e:	8082                	ret
      printf("%s: fork failed\n", s);
    1a20:	85d6                	mv	a1,s5
    1a22:	00005517          	auipc	a0,0x5
    1a26:	ea650513          	addi	a0,a0,-346 # 68c8 <malloc+0x98a>
    1a2a:	00004097          	auipc	ra,0x4
    1a2e:	458080e7          	jalr	1112(ra) # 5e82 <printf>
      exit(1);
    1a32:	4505                	li	a0,1
    1a34:	00004097          	auipc	ra,0x4
    1a38:	0e0080e7          	jalr	224(ra) # 5b14 <exit>
        printf("%s: wait wrong pid\n", s);
    1a3c:	85d6                	mv	a1,s5
    1a3e:	00005517          	auipc	a0,0x5
    1a42:	01250513          	addi	a0,a0,18 # 6a50 <malloc+0xb12>
    1a46:	00004097          	auipc	ra,0x4
    1a4a:	43c080e7          	jalr	1084(ra) # 5e82 <printf>
        exit(1);
    1a4e:	4505                	li	a0,1
    1a50:	00004097          	auipc	ra,0x4
    1a54:	0c4080e7          	jalr	196(ra) # 5b14 <exit>
        printf("%s: wait wrong exit status\n", s);
    1a58:	85d6                	mv	a1,s5
    1a5a:	00005517          	auipc	a0,0x5
    1a5e:	00e50513          	addi	a0,a0,14 # 6a68 <malloc+0xb2a>
    1a62:	00004097          	auipc	ra,0x4
    1a66:	420080e7          	jalr	1056(ra) # 5e82 <printf>
        exit(1);
    1a6a:	4505                	li	a0,1
    1a6c:	00004097          	auipc	ra,0x4
    1a70:	0a8080e7          	jalr	168(ra) # 5b14 <exit>
      exit(i);
    1a74:	854a                	mv	a0,s2
    1a76:	00004097          	auipc	ra,0x4
    1a7a:	09e080e7          	jalr	158(ra) # 5b14 <exit>

0000000000001a7e <twochildren>:
void twochildren(char *s) {
    1a7e:	1101                	addi	sp,sp,-32
    1a80:	ec06                	sd	ra,24(sp)
    1a82:	e822                	sd	s0,16(sp)
    1a84:	e426                	sd	s1,8(sp)
    1a86:	e04a                	sd	s2,0(sp)
    1a88:	1000                	addi	s0,sp,32
    1a8a:	892a                	mv	s2,a0
    1a8c:	3e800493          	li	s1,1000
    int pid1 = fork();
    1a90:	00004097          	auipc	ra,0x4
    1a94:	07c080e7          	jalr	124(ra) # 5b0c <fork>
    if (pid1 < 0) {
    1a98:	02054c63          	bltz	a0,1ad0 <twochildren+0x52>
    if (pid1 == 0) {
    1a9c:	c921                	beqz	a0,1aec <twochildren+0x6e>
      int pid2 = fork();
    1a9e:	00004097          	auipc	ra,0x4
    1aa2:	06e080e7          	jalr	110(ra) # 5b0c <fork>
      if (pid2 < 0) {
    1aa6:	04054763          	bltz	a0,1af4 <twochildren+0x76>
      if (pid2 == 0) {
    1aaa:	c13d                	beqz	a0,1b10 <twochildren+0x92>
        wait(0);
    1aac:	4501                	li	a0,0
    1aae:	00004097          	auipc	ra,0x4
    1ab2:	06e080e7          	jalr	110(ra) # 5b1c <wait>
        wait(0);
    1ab6:	4501                	li	a0,0
    1ab8:	00004097          	auipc	ra,0x4
    1abc:	064080e7          	jalr	100(ra) # 5b1c <wait>
  for (int i = 0; i < 1000; i++) {
    1ac0:	34fd                	addiw	s1,s1,-1
    1ac2:	f4f9                	bnez	s1,1a90 <twochildren+0x12>
}
    1ac4:	60e2                	ld	ra,24(sp)
    1ac6:	6442                	ld	s0,16(sp)
    1ac8:	64a2                	ld	s1,8(sp)
    1aca:	6902                	ld	s2,0(sp)
    1acc:	6105                	addi	sp,sp,32
    1ace:	8082                	ret
      printf("%s: fork failed\n", s);
    1ad0:	85ca                	mv	a1,s2
    1ad2:	00005517          	auipc	a0,0x5
    1ad6:	df650513          	addi	a0,a0,-522 # 68c8 <malloc+0x98a>
    1ada:	00004097          	auipc	ra,0x4
    1ade:	3a8080e7          	jalr	936(ra) # 5e82 <printf>
      exit(1);
    1ae2:	4505                	li	a0,1
    1ae4:	00004097          	auipc	ra,0x4
    1ae8:	030080e7          	jalr	48(ra) # 5b14 <exit>
      exit(0);
    1aec:	00004097          	auipc	ra,0x4
    1af0:	028080e7          	jalr	40(ra) # 5b14 <exit>
        printf("%s: fork failed\n", s);
    1af4:	85ca                	mv	a1,s2
    1af6:	00005517          	auipc	a0,0x5
    1afa:	dd250513          	addi	a0,a0,-558 # 68c8 <malloc+0x98a>
    1afe:	00004097          	auipc	ra,0x4
    1b02:	384080e7          	jalr	900(ra) # 5e82 <printf>
        exit(1);
    1b06:	4505                	li	a0,1
    1b08:	00004097          	auipc	ra,0x4
    1b0c:	00c080e7          	jalr	12(ra) # 5b14 <exit>
        exit(0);
    1b10:	00004097          	auipc	ra,0x4
    1b14:	004080e7          	jalr	4(ra) # 5b14 <exit>

0000000000001b18 <forkfork>:
void forkfork(char *s) {
    1b18:	7179                	addi	sp,sp,-48
    1b1a:	f406                	sd	ra,40(sp)
    1b1c:	f022                	sd	s0,32(sp)
    1b1e:	ec26                	sd	s1,24(sp)
    1b20:	1800                	addi	s0,sp,48
    1b22:	84aa                	mv	s1,a0
    int pid = fork();
    1b24:	00004097          	auipc	ra,0x4
    1b28:	fe8080e7          	jalr	-24(ra) # 5b0c <fork>
    if (pid < 0) {
    1b2c:	04054163          	bltz	a0,1b6e <forkfork+0x56>
    if (pid == 0) {
    1b30:	cd29                	beqz	a0,1b8a <forkfork+0x72>
    int pid = fork();
    1b32:	00004097          	auipc	ra,0x4
    1b36:	fda080e7          	jalr	-38(ra) # 5b0c <fork>
    if (pid < 0) {
    1b3a:	02054a63          	bltz	a0,1b6e <forkfork+0x56>
    if (pid == 0) {
    1b3e:	c531                	beqz	a0,1b8a <forkfork+0x72>
    wait(&xstatus);
    1b40:	fdc40513          	addi	a0,s0,-36
    1b44:	00004097          	auipc	ra,0x4
    1b48:	fd8080e7          	jalr	-40(ra) # 5b1c <wait>
    if (xstatus != 0) {
    1b4c:	fdc42783          	lw	a5,-36(s0)
    1b50:	ebbd                	bnez	a5,1bc6 <forkfork+0xae>
    wait(&xstatus);
    1b52:	fdc40513          	addi	a0,s0,-36
    1b56:	00004097          	auipc	ra,0x4
    1b5a:	fc6080e7          	jalr	-58(ra) # 5b1c <wait>
    if (xstatus != 0) {
    1b5e:	fdc42783          	lw	a5,-36(s0)
    1b62:	e3b5                	bnez	a5,1bc6 <forkfork+0xae>
}
    1b64:	70a2                	ld	ra,40(sp)
    1b66:	7402                	ld	s0,32(sp)
    1b68:	64e2                	ld	s1,24(sp)
    1b6a:	6145                	addi	sp,sp,48
    1b6c:	8082                	ret
      printf("%s: fork failed", s);
    1b6e:	85a6                	mv	a1,s1
    1b70:	00005517          	auipc	a0,0x5
    1b74:	f1850513          	addi	a0,a0,-232 # 6a88 <malloc+0xb4a>
    1b78:	00004097          	auipc	ra,0x4
    1b7c:	30a080e7          	jalr	778(ra) # 5e82 <printf>
      exit(1);
    1b80:	4505                	li	a0,1
    1b82:	00004097          	auipc	ra,0x4
    1b86:	f92080e7          	jalr	-110(ra) # 5b14 <exit>
void forkfork(char *s) {
    1b8a:	0c800493          	li	s1,200
        int pid1 = fork();
    1b8e:	00004097          	auipc	ra,0x4
    1b92:	f7e080e7          	jalr	-130(ra) # 5b0c <fork>
        if (pid1 < 0) {
    1b96:	00054f63          	bltz	a0,1bb4 <forkfork+0x9c>
        if (pid1 == 0) {
    1b9a:	c115                	beqz	a0,1bbe <forkfork+0xa6>
        wait(0);
    1b9c:	4501                	li	a0,0
    1b9e:	00004097          	auipc	ra,0x4
    1ba2:	f7e080e7          	jalr	-130(ra) # 5b1c <wait>
      for (int j = 0; j < 200; j++) {
    1ba6:	34fd                	addiw	s1,s1,-1
    1ba8:	f0fd                	bnez	s1,1b8e <forkfork+0x76>
      exit(0);
    1baa:	4501                	li	a0,0
    1bac:	00004097          	auipc	ra,0x4
    1bb0:	f68080e7          	jalr	-152(ra) # 5b14 <exit>
          exit(1);
    1bb4:	4505                	li	a0,1
    1bb6:	00004097          	auipc	ra,0x4
    1bba:	f5e080e7          	jalr	-162(ra) # 5b14 <exit>
          exit(0);
    1bbe:	00004097          	auipc	ra,0x4
    1bc2:	f56080e7          	jalr	-170(ra) # 5b14 <exit>
      printf("%s: fork in child failed", s);
    1bc6:	85a6                	mv	a1,s1
    1bc8:	00005517          	auipc	a0,0x5
    1bcc:	ed050513          	addi	a0,a0,-304 # 6a98 <malloc+0xb5a>
    1bd0:	00004097          	auipc	ra,0x4
    1bd4:	2b2080e7          	jalr	690(ra) # 5e82 <printf>
      exit(1);
    1bd8:	4505                	li	a0,1
    1bda:	00004097          	auipc	ra,0x4
    1bde:	f3a080e7          	jalr	-198(ra) # 5b14 <exit>

0000000000001be2 <reparent2>:
void reparent2(char *s) {
    1be2:	1101                	addi	sp,sp,-32
    1be4:	ec06                	sd	ra,24(sp)
    1be6:	e822                	sd	s0,16(sp)
    1be8:	e426                	sd	s1,8(sp)
    1bea:	1000                	addi	s0,sp,32
    1bec:	32000493          	li	s1,800
    int pid1 = fork();
    1bf0:	00004097          	auipc	ra,0x4
    1bf4:	f1c080e7          	jalr	-228(ra) # 5b0c <fork>
    if (pid1 < 0) {
    1bf8:	00054f63          	bltz	a0,1c16 <reparent2+0x34>
    if (pid1 == 0) {
    1bfc:	c915                	beqz	a0,1c30 <reparent2+0x4e>
    wait(0);
    1bfe:	4501                	li	a0,0
    1c00:	00004097          	auipc	ra,0x4
    1c04:	f1c080e7          	jalr	-228(ra) # 5b1c <wait>
  for (int i = 0; i < 800; i++) {
    1c08:	34fd                	addiw	s1,s1,-1
    1c0a:	f0fd                	bnez	s1,1bf0 <reparent2+0xe>
  exit(0);
    1c0c:	4501                	li	a0,0
    1c0e:	00004097          	auipc	ra,0x4
    1c12:	f06080e7          	jalr	-250(ra) # 5b14 <exit>
      printf("fork failed\n");
    1c16:	00005517          	auipc	a0,0x5
    1c1a:	0d250513          	addi	a0,a0,210 # 6ce8 <malloc+0xdaa>
    1c1e:	00004097          	auipc	ra,0x4
    1c22:	264080e7          	jalr	612(ra) # 5e82 <printf>
      exit(1);
    1c26:	4505                	li	a0,1
    1c28:	00004097          	auipc	ra,0x4
    1c2c:	eec080e7          	jalr	-276(ra) # 5b14 <exit>
      fork();
    1c30:	00004097          	auipc	ra,0x4
    1c34:	edc080e7          	jalr	-292(ra) # 5b0c <fork>
      fork();
    1c38:	00004097          	auipc	ra,0x4
    1c3c:	ed4080e7          	jalr	-300(ra) # 5b0c <fork>
      exit(0);
    1c40:	4501                	li	a0,0
    1c42:	00004097          	auipc	ra,0x4
    1c46:	ed2080e7          	jalr	-302(ra) # 5b14 <exit>

0000000000001c4a <createdelete>:
void createdelete(char *s) {
    1c4a:	7135                	addi	sp,sp,-160
    1c4c:	ed06                	sd	ra,152(sp)
    1c4e:	e922                	sd	s0,144(sp)
    1c50:	e526                	sd	s1,136(sp)
    1c52:	e14a                	sd	s2,128(sp)
    1c54:	fcce                	sd	s3,120(sp)
    1c56:	f8d2                	sd	s4,112(sp)
    1c58:	f4d6                	sd	s5,104(sp)
    1c5a:	f0da                	sd	s6,96(sp)
    1c5c:	ecde                	sd	s7,88(sp)
    1c5e:	e8e2                	sd	s8,80(sp)
    1c60:	e4e6                	sd	s9,72(sp)
    1c62:	e0ea                	sd	s10,64(sp)
    1c64:	fc6e                	sd	s11,56(sp)
    1c66:	1100                	addi	s0,sp,160
    1c68:	8daa                	mv	s11,a0
  for (pi = 0; pi < NCHILD; pi++) {
    1c6a:	4901                	li	s2,0
    1c6c:	4991                	li	s3,4
    pid = fork();
    1c6e:	00004097          	auipc	ra,0x4
    1c72:	e9e080e7          	jalr	-354(ra) # 5b0c <fork>
    1c76:	84aa                	mv	s1,a0
    if (pid < 0) {
    1c78:	04054263          	bltz	a0,1cbc <createdelete+0x72>
    if (pid == 0) {
    1c7c:	cd31                	beqz	a0,1cd8 <createdelete+0x8e>
  for (pi = 0; pi < NCHILD; pi++) {
    1c7e:	2905                	addiw	s2,s2,1
    1c80:	ff3917e3          	bne	s2,s3,1c6e <createdelete+0x24>
    1c84:	4491                	li	s1,4
    wait(&xstatus);
    1c86:	f6c40913          	addi	s2,s0,-148
    1c8a:	854a                	mv	a0,s2
    1c8c:	00004097          	auipc	ra,0x4
    1c90:	e90080e7          	jalr	-368(ra) # 5b1c <wait>
    if (xstatus != 0)
    1c94:	f6c42a83          	lw	s5,-148(s0)
    1c98:	0e0a9663          	bnez	s5,1d84 <createdelete+0x13a>
  for (pi = 0; pi < NCHILD; pi++) {
    1c9c:	34fd                	addiw	s1,s1,-1
    1c9e:	f4f5                	bnez	s1,1c8a <createdelete+0x40>
  name[0] = name[1] = name[2] = 0;
    1ca0:	f6040923          	sb	zero,-142(s0)
    1ca4:	03000913          	li	s2,48
    1ca8:	5a7d                	li	s4,-1
      if ((i == 0 || i >= N / 2) && fd < 0) {
    1caa:	4d25                	li	s10,9
    1cac:	07000c93          	li	s9,112
      fd = open(name, 0);
    1cb0:	f7040c13          	addi	s8,s0,-144
      } else if ((i >= 1 && i < N / 2) && fd >= 0) {
    1cb4:	4ba1                	li	s7,8
    for (pi = 0; pi < NCHILD; pi++) {
    1cb6:	07400b13          	li	s6,116
    1cba:	a28d                	j	1e1c <createdelete+0x1d2>
      printf("fork failed\n", s);
    1cbc:	85ee                	mv	a1,s11
    1cbe:	00005517          	auipc	a0,0x5
    1cc2:	02a50513          	addi	a0,a0,42 # 6ce8 <malloc+0xdaa>
    1cc6:	00004097          	auipc	ra,0x4
    1cca:	1bc080e7          	jalr	444(ra) # 5e82 <printf>
      exit(1);
    1cce:	4505                	li	a0,1
    1cd0:	00004097          	auipc	ra,0x4
    1cd4:	e44080e7          	jalr	-444(ra) # 5b14 <exit>
      name[0] = 'p' + pi;
    1cd8:	0709091b          	addiw	s2,s2,112
    1cdc:	f7240823          	sb	s2,-144(s0)
      name[2] = '\0';
    1ce0:	f6040923          	sb	zero,-142(s0)
        fd = open(name, O_CREATE | O_RDWR);
    1ce4:	f7040913          	addi	s2,s0,-144
    1ce8:	20200993          	li	s3,514
      for (i = 0; i < N; i++) {
    1cec:	4a51                	li	s4,20
    1cee:	a081                	j	1d2e <createdelete+0xe4>
          printf("%s: create failed\n", s);
    1cf0:	85ee                	mv	a1,s11
    1cf2:	00005517          	auipc	a0,0x5
    1cf6:	c6e50513          	addi	a0,a0,-914 # 6960 <malloc+0xa22>
    1cfa:	00004097          	auipc	ra,0x4
    1cfe:	188080e7          	jalr	392(ra) # 5e82 <printf>
          exit(1);
    1d02:	4505                	li	a0,1
    1d04:	00004097          	auipc	ra,0x4
    1d08:	e10080e7          	jalr	-496(ra) # 5b14 <exit>
          name[1] = '0' + (i / 2);
    1d0c:	01f4d79b          	srliw	a5,s1,0x1f
    1d10:	9fa5                	addw	a5,a5,s1
    1d12:	4017d79b          	sraiw	a5,a5,0x1
    1d16:	0307879b          	addiw	a5,a5,48
    1d1a:	f6f408a3          	sb	a5,-143(s0)
          if (unlink(name) < 0) {
    1d1e:	854a                	mv	a0,s2
    1d20:	00004097          	auipc	ra,0x4
    1d24:	e44080e7          	jalr	-444(ra) # 5b64 <unlink>
    1d28:	04054063          	bltz	a0,1d68 <createdelete+0x11e>
      for (i = 0; i < N; i++) {
    1d2c:	2485                	addiw	s1,s1,1
        name[1] = '0' + i;
    1d2e:	0304879b          	addiw	a5,s1,48
    1d32:	f6f408a3          	sb	a5,-143(s0)
        fd = open(name, O_CREATE | O_RDWR);
    1d36:	85ce                	mv	a1,s3
    1d38:	854a                	mv	a0,s2
    1d3a:	00004097          	auipc	ra,0x4
    1d3e:	e1a080e7          	jalr	-486(ra) # 5b54 <open>
        if (fd < 0) {
    1d42:	fa0547e3          	bltz	a0,1cf0 <createdelete+0xa6>
        close(fd);
    1d46:	00004097          	auipc	ra,0x4
    1d4a:	df6080e7          	jalr	-522(ra) # 5b3c <close>
        if (i > 0 && (i % 2) == 0) {
    1d4e:	fc905fe3          	blez	s1,1d2c <createdelete+0xe2>
    1d52:	0014f793          	andi	a5,s1,1
    1d56:	dbdd                	beqz	a5,1d0c <createdelete+0xc2>
      for (i = 0; i < N; i++) {
    1d58:	2485                	addiw	s1,s1,1
    1d5a:	fd449ae3          	bne	s1,s4,1d2e <createdelete+0xe4>
      exit(0);
    1d5e:	4501                	li	a0,0
    1d60:	00004097          	auipc	ra,0x4
    1d64:	db4080e7          	jalr	-588(ra) # 5b14 <exit>
            printf("%s: unlink failed\n", s);
    1d68:	85ee                	mv	a1,s11
    1d6a:	00005517          	auipc	a0,0x5
    1d6e:	d4e50513          	addi	a0,a0,-690 # 6ab8 <malloc+0xb7a>
    1d72:	00004097          	auipc	ra,0x4
    1d76:	110080e7          	jalr	272(ra) # 5e82 <printf>
            exit(1);
    1d7a:	4505                	li	a0,1
    1d7c:	00004097          	auipc	ra,0x4
    1d80:	d98080e7          	jalr	-616(ra) # 5b14 <exit>
      exit(1);
    1d84:	4505                	li	a0,1
    1d86:	00004097          	auipc	ra,0x4
    1d8a:	d8e080e7          	jalr	-626(ra) # 5b14 <exit>
      } else if ((i >= 1 && i < N / 2) && fd >= 0) {
    1d8e:	054bf863          	bgeu	s7,s4,1dde <createdelete+0x194>
      if (fd >= 0)
    1d92:	06055863          	bgez	a0,1e02 <createdelete+0x1b8>
    for (pi = 0; pi < NCHILD; pi++) {
    1d96:	2485                	addiw	s1,s1,1
    1d98:	0ff4f493          	zext.b	s1,s1
    1d9c:	07648863          	beq	s1,s6,1e0c <createdelete+0x1c2>
      name[0] = 'p' + pi;
    1da0:	f6940823          	sb	s1,-144(s0)
      name[1] = '0' + i;
    1da4:	f72408a3          	sb	s2,-143(s0)
      fd = open(name, 0);
    1da8:	4581                	li	a1,0
    1daa:	8562                	mv	a0,s8
    1dac:	00004097          	auipc	ra,0x4
    1db0:	da8080e7          	jalr	-600(ra) # 5b54 <open>
      if ((i == 0 || i >= N / 2) && fd < 0) {
    1db4:	01f5579b          	srliw	a5,a0,0x1f
    1db8:	dbf9                	beqz	a5,1d8e <createdelete+0x144>
    1dba:	fc098ae3          	beqz	s3,1d8e <createdelete+0x144>
        printf("%s: oops createdelete %s didn't exist\n", s, name);
    1dbe:	f7040613          	addi	a2,s0,-144
    1dc2:	85ee                	mv	a1,s11
    1dc4:	00005517          	auipc	a0,0x5
    1dc8:	d0c50513          	addi	a0,a0,-756 # 6ad0 <malloc+0xb92>
    1dcc:	00004097          	auipc	ra,0x4
    1dd0:	0b6080e7          	jalr	182(ra) # 5e82 <printf>
        exit(1);
    1dd4:	4505                	li	a0,1
    1dd6:	00004097          	auipc	ra,0x4
    1dda:	d3e080e7          	jalr	-706(ra) # 5b14 <exit>
      } else if ((i >= 1 && i < N / 2) && fd >= 0) {
    1dde:	fa054ce3          	bltz	a0,1d96 <createdelete+0x14c>
        printf("%s: oops createdelete %s did exist\n", s, name);
    1de2:	f7040613          	addi	a2,s0,-144
    1de6:	85ee                	mv	a1,s11
    1de8:	00005517          	auipc	a0,0x5
    1dec:	d1050513          	addi	a0,a0,-752 # 6af8 <malloc+0xbba>
    1df0:	00004097          	auipc	ra,0x4
    1df4:	092080e7          	jalr	146(ra) # 5e82 <printf>
        exit(1);
    1df8:	4505                	li	a0,1
    1dfa:	00004097          	auipc	ra,0x4
    1dfe:	d1a080e7          	jalr	-742(ra) # 5b14 <exit>
        close(fd);
    1e02:	00004097          	auipc	ra,0x4
    1e06:	d3a080e7          	jalr	-710(ra) # 5b3c <close>
    1e0a:	b771                	j	1d96 <createdelete+0x14c>
  for (i = 0; i < N; i++) {
    1e0c:	2a85                	addiw	s5,s5,1
    1e0e:	2a05                	addiw	s4,s4,1
    1e10:	2905                	addiw	s2,s2,1
    1e12:	0ff97913          	zext.b	s2,s2
    1e16:	47d1                	li	a5,20
    1e18:	00fa8a63          	beq	s5,a5,1e2c <createdelete+0x1e2>
      if ((i == 0 || i >= N / 2) && fd < 0) {
    1e1c:	001ab993          	seqz	s3,s5
    1e20:	015d27b3          	slt	a5,s10,s5
    1e24:	00f9e9b3          	or	s3,s3,a5
    1e28:	84e6                	mv	s1,s9
    1e2a:	bf9d                	j	1da0 <createdelete+0x156>
    1e2c:	03000993          	li	s3,48
    1e30:	07000913          	li	s2,112
  name[0] = name[1] = name[2] = 0;
    1e34:	4b11                	li	s6,4
      unlink(name);
    1e36:	f7040a13          	addi	s4,s0,-144
  for (i = 0; i < N; i++) {
    1e3a:	08400a93          	li	s5,132
  name[0] = name[1] = name[2] = 0;
    1e3e:	84da                	mv	s1,s6
      name[0] = 'p' + i;
    1e40:	f7240823          	sb	s2,-144(s0)
      name[1] = '0' + i;
    1e44:	f73408a3          	sb	s3,-143(s0)
      unlink(name);
    1e48:	8552                	mv	a0,s4
    1e4a:	00004097          	auipc	ra,0x4
    1e4e:	d1a080e7          	jalr	-742(ra) # 5b64 <unlink>
    for (pi = 0; pi < NCHILD; pi++) {
    1e52:	34fd                	addiw	s1,s1,-1
    1e54:	f4f5                	bnez	s1,1e40 <createdelete+0x1f6>
  for (i = 0; i < N; i++) {
    1e56:	2905                	addiw	s2,s2,1
    1e58:	0ff97913          	zext.b	s2,s2
    1e5c:	2985                	addiw	s3,s3,1
    1e5e:	0ff9f993          	zext.b	s3,s3
    1e62:	fd591ee3          	bne	s2,s5,1e3e <createdelete+0x1f4>
}
    1e66:	60ea                	ld	ra,152(sp)
    1e68:	644a                	ld	s0,144(sp)
    1e6a:	64aa                	ld	s1,136(sp)
    1e6c:	690a                	ld	s2,128(sp)
    1e6e:	79e6                	ld	s3,120(sp)
    1e70:	7a46                	ld	s4,112(sp)
    1e72:	7aa6                	ld	s5,104(sp)
    1e74:	7b06                	ld	s6,96(sp)
    1e76:	6be6                	ld	s7,88(sp)
    1e78:	6c46                	ld	s8,80(sp)
    1e7a:	6ca6                	ld	s9,72(sp)
    1e7c:	6d06                	ld	s10,64(sp)
    1e7e:	7de2                	ld	s11,56(sp)
    1e80:	610d                	addi	sp,sp,160
    1e82:	8082                	ret

0000000000001e84 <linkunlink>:
void linkunlink(char *s) {
    1e84:	711d                	addi	sp,sp,-96
    1e86:	ec86                	sd	ra,88(sp)
    1e88:	e8a2                	sd	s0,80(sp)
    1e8a:	e4a6                	sd	s1,72(sp)
    1e8c:	e0ca                	sd	s2,64(sp)
    1e8e:	fc4e                	sd	s3,56(sp)
    1e90:	f852                	sd	s4,48(sp)
    1e92:	f456                	sd	s5,40(sp)
    1e94:	f05a                	sd	s6,32(sp)
    1e96:	ec5e                	sd	s7,24(sp)
    1e98:	e862                	sd	s8,16(sp)
    1e9a:	e466                	sd	s9,8(sp)
    1e9c:	e06a                	sd	s10,0(sp)
    1e9e:	1080                	addi	s0,sp,96
    1ea0:	84aa                	mv	s1,a0
  unlink("x");
    1ea2:	00004517          	auipc	a0,0x4
    1ea6:	23e50513          	addi	a0,a0,574 # 60e0 <malloc+0x1a2>
    1eaa:	00004097          	auipc	ra,0x4
    1eae:	cba080e7          	jalr	-838(ra) # 5b64 <unlink>
  pid = fork();
    1eb2:	00004097          	auipc	ra,0x4
    1eb6:	c5a080e7          	jalr	-934(ra) # 5b0c <fork>
  if (pid < 0) {
    1eba:	04054363          	bltz	a0,1f00 <linkunlink+0x7c>
    1ebe:	8d2a                	mv	s10,a0
  unsigned int x = (pid ? 1 : 97);
    1ec0:	06100913          	li	s2,97
    1ec4:	c111                	beqz	a0,1ec8 <linkunlink+0x44>
    1ec6:	4905                	li	s2,1
    1ec8:	06400493          	li	s1,100
    x = x * 1103515245 + 12345;
    1ecc:	41c65ab7          	lui	s5,0x41c65
    1ed0:	e6da8a9b          	addiw	s5,s5,-403 # 41c64e6d <__BSS_END__+0x41c54a05>
    1ed4:	6a0d                	lui	s4,0x3
    1ed6:	039a0a1b          	addiw	s4,s4,57 # 3039 <fourteen+0xf5>
    if ((x % 3) == 0) {
    1eda:	000ab9b7          	lui	s3,0xab
    1ede:	aab98993          	addi	s3,s3,-1365 # aaaab <__BSS_END__+0x9a643>
    1ee2:	09b2                	slli	s3,s3,0xc
    1ee4:	aab98993          	addi	s3,s3,-1365
    } else if ((x % 3) == 1) {
    1ee8:	4b85                	li	s7,1
      unlink("x");
    1eea:	00004b17          	auipc	s6,0x4
    1eee:	1f6b0b13          	addi	s6,s6,502 # 60e0 <malloc+0x1a2>
      link("cat", "x");
    1ef2:	00005c97          	auipc	s9,0x5
    1ef6:	c2ec8c93          	addi	s9,s9,-978 # 6b20 <malloc+0xbe2>
      close(open("x", O_RDWR | O_CREATE));
    1efa:	20200c13          	li	s8,514
    1efe:	a089                	j	1f40 <linkunlink+0xbc>
    printf("%s: fork failed\n", s);
    1f00:	85a6                	mv	a1,s1
    1f02:	00005517          	auipc	a0,0x5
    1f06:	9c650513          	addi	a0,a0,-1594 # 68c8 <malloc+0x98a>
    1f0a:	00004097          	auipc	ra,0x4
    1f0e:	f78080e7          	jalr	-136(ra) # 5e82 <printf>
    exit(1);
    1f12:	4505                	li	a0,1
    1f14:	00004097          	auipc	ra,0x4
    1f18:	c00080e7          	jalr	-1024(ra) # 5b14 <exit>
      close(open("x", O_RDWR | O_CREATE));
    1f1c:	85e2                	mv	a1,s8
    1f1e:	855a                	mv	a0,s6
    1f20:	00004097          	auipc	ra,0x4
    1f24:	c34080e7          	jalr	-972(ra) # 5b54 <open>
    1f28:	00004097          	auipc	ra,0x4
    1f2c:	c14080e7          	jalr	-1004(ra) # 5b3c <close>
    1f30:	a031                	j	1f3c <linkunlink+0xb8>
      unlink("x");
    1f32:	855a                	mv	a0,s6
    1f34:	00004097          	auipc	ra,0x4
    1f38:	c30080e7          	jalr	-976(ra) # 5b64 <unlink>
  for (i = 0; i < 100; i++) {
    1f3c:	34fd                	addiw	s1,s1,-1
    1f3e:	c895                	beqz	s1,1f72 <linkunlink+0xee>
    x = x * 1103515245 + 12345;
    1f40:	035907bb          	mulw	a5,s2,s5
    1f44:	00fa07bb          	addw	a5,s4,a5
    1f48:	893e                	mv	s2,a5
    if ((x % 3) == 0) {
    1f4a:	02079713          	slli	a4,a5,0x20
    1f4e:	9301                	srli	a4,a4,0x20
    1f50:	03370733          	mul	a4,a4,s3
    1f54:	9305                	srli	a4,a4,0x21
    1f56:	0017169b          	slliw	a3,a4,0x1
    1f5a:	9f35                	addw	a4,a4,a3
    1f5c:	9f99                	subw	a5,a5,a4
    1f5e:	dfdd                	beqz	a5,1f1c <linkunlink+0x98>
    } else if ((x % 3) == 1) {
    1f60:	fd7799e3          	bne	a5,s7,1f32 <linkunlink+0xae>
      link("cat", "x");
    1f64:	85da                	mv	a1,s6
    1f66:	8566                	mv	a0,s9
    1f68:	00004097          	auipc	ra,0x4
    1f6c:	c0c080e7          	jalr	-1012(ra) # 5b74 <link>
    1f70:	b7f1                	j	1f3c <linkunlink+0xb8>
  if (pid)
    1f72:	020d0563          	beqz	s10,1f9c <linkunlink+0x118>
    wait(0);
    1f76:	4501                	li	a0,0
    1f78:	00004097          	auipc	ra,0x4
    1f7c:	ba4080e7          	jalr	-1116(ra) # 5b1c <wait>
}
    1f80:	60e6                	ld	ra,88(sp)
    1f82:	6446                	ld	s0,80(sp)
    1f84:	64a6                	ld	s1,72(sp)
    1f86:	6906                	ld	s2,64(sp)
    1f88:	79e2                	ld	s3,56(sp)
    1f8a:	7a42                	ld	s4,48(sp)
    1f8c:	7aa2                	ld	s5,40(sp)
    1f8e:	7b02                	ld	s6,32(sp)
    1f90:	6be2                	ld	s7,24(sp)
    1f92:	6c42                	ld	s8,16(sp)
    1f94:	6ca2                	ld	s9,8(sp)
    1f96:	6d02                	ld	s10,0(sp)
    1f98:	6125                	addi	sp,sp,96
    1f9a:	8082                	ret
    exit(0);
    1f9c:	4501                	li	a0,0
    1f9e:	00004097          	auipc	ra,0x4
    1fa2:	b76080e7          	jalr	-1162(ra) # 5b14 <exit>

0000000000001fa6 <manywrites>:
void manywrites(char *s) {
    1fa6:	7159                	addi	sp,sp,-112
    1fa8:	f486                	sd	ra,104(sp)
    1faa:	f0a2                	sd	s0,96(sp)
    1fac:	eca6                	sd	s1,88(sp)
    1fae:	e8ca                	sd	s2,80(sp)
    1fb0:	e4ce                	sd	s3,72(sp)
    1fb2:	ec66                	sd	s9,24(sp)
    1fb4:	1880                	addi	s0,sp,112
    1fb6:	8caa                	mv	s9,a0
  for (int ci = 0; ci < nchildren; ci++) {
    1fb8:	4901                	li	s2,0
    1fba:	4991                	li	s3,4
    int pid = fork();
    1fbc:	00004097          	auipc	ra,0x4
    1fc0:	b50080e7          	jalr	-1200(ra) # 5b0c <fork>
    1fc4:	84aa                	mv	s1,a0
    if (pid < 0) {
    1fc6:	04054063          	bltz	a0,2006 <manywrites+0x60>
    if (pid == 0) {
    1fca:	c12d                	beqz	a0,202c <manywrites+0x86>
  for (int ci = 0; ci < nchildren; ci++) {
    1fcc:	2905                	addiw	s2,s2,1
    1fce:	ff3917e3          	bne	s2,s3,1fbc <manywrites+0x16>
    1fd2:	4491                	li	s1,4
    wait(&st);
    1fd4:	f9840913          	addi	s2,s0,-104
    int st = 0;
    1fd8:	f8042c23          	sw	zero,-104(s0)
    wait(&st);
    1fdc:	854a                	mv	a0,s2
    1fde:	00004097          	auipc	ra,0x4
    1fe2:	b3e080e7          	jalr	-1218(ra) # 5b1c <wait>
    if (st != 0)
    1fe6:	f9842503          	lw	a0,-104(s0)
    1fea:	12051363          	bnez	a0,2110 <manywrites+0x16a>
  for (int ci = 0; ci < nchildren; ci++) {
    1fee:	34fd                	addiw	s1,s1,-1
    1ff0:	f4e5                	bnez	s1,1fd8 <manywrites+0x32>
    1ff2:	e0d2                	sd	s4,64(sp)
    1ff4:	fc56                	sd	s5,56(sp)
    1ff6:	f85a                	sd	s6,48(sp)
    1ff8:	f45e                	sd	s7,40(sp)
    1ffa:	f062                	sd	s8,32(sp)
    1ffc:	e86a                	sd	s10,16(sp)
  exit(0);
    1ffe:	00004097          	auipc	ra,0x4
    2002:	b16080e7          	jalr	-1258(ra) # 5b14 <exit>
    2006:	e0d2                	sd	s4,64(sp)
    2008:	fc56                	sd	s5,56(sp)
    200a:	f85a                	sd	s6,48(sp)
    200c:	f45e                	sd	s7,40(sp)
    200e:	f062                	sd	s8,32(sp)
    2010:	e86a                	sd	s10,16(sp)
      printf("fork failed\n");
    2012:	00005517          	auipc	a0,0x5
    2016:	cd650513          	addi	a0,a0,-810 # 6ce8 <malloc+0xdaa>
    201a:	00004097          	auipc	ra,0x4
    201e:	e68080e7          	jalr	-408(ra) # 5e82 <printf>
      exit(1);
    2022:	4505                	li	a0,1
    2024:	00004097          	auipc	ra,0x4
    2028:	af0080e7          	jalr	-1296(ra) # 5b14 <exit>
    202c:	e0d2                	sd	s4,64(sp)
    202e:	fc56                	sd	s5,56(sp)
    2030:	f85a                	sd	s6,48(sp)
    2032:	f45e                	sd	s7,40(sp)
    2034:	f062                	sd	s8,32(sp)
    2036:	e86a                	sd	s10,16(sp)
      name[0] = 'b';
    2038:	06200793          	li	a5,98
    203c:	f8f40c23          	sb	a5,-104(s0)
      name[1] = 'a' + ci;
    2040:	0619079b          	addiw	a5,s2,97
    2044:	f8f40ca3          	sb	a5,-103(s0)
      name[2] = '\0';
    2048:	f8040d23          	sb	zero,-102(s0)
      unlink(name);
    204c:	f9840513          	addi	a0,s0,-104
    2050:	00004097          	auipc	ra,0x4
    2054:	b14080e7          	jalr	-1260(ra) # 5b64 <unlink>
    2058:	47f9                	li	a5,30
    205a:	8d3e                	mv	s10,a5
          int fd = open(name, O_CREATE | O_RDWR);
    205c:	f9840b93          	addi	s7,s0,-104
    2060:	20200b13          	li	s6,514
          int cc = write(fd, buf, sz);
    2064:	6a8d                	lui	s5,0x3
    2066:	0000bc17          	auipc	s8,0xb
    206a:	3f2c0c13          	addi	s8,s8,1010 # d458 <buf>
        for (int i = 0; i < ci + 1; i++) {
    206e:	8a26                	mv	s4,s1
    2070:	02094b63          	bltz	s2,20a6 <manywrites+0x100>
          int fd = open(name, O_CREATE | O_RDWR);
    2074:	85da                	mv	a1,s6
    2076:	855e                	mv	a0,s7
    2078:	00004097          	auipc	ra,0x4
    207c:	adc080e7          	jalr	-1316(ra) # 5b54 <open>
    2080:	89aa                	mv	s3,a0
          if (fd < 0) {
    2082:	04054763          	bltz	a0,20d0 <manywrites+0x12a>
          int cc = write(fd, buf, sz);
    2086:	8656                	mv	a2,s5
    2088:	85e2                	mv	a1,s8
    208a:	00004097          	auipc	ra,0x4
    208e:	aaa080e7          	jalr	-1366(ra) # 5b34 <write>
          if (cc != sz) {
    2092:	05551f63          	bne	a0,s5,20f0 <manywrites+0x14a>
          close(fd);
    2096:	854e                	mv	a0,s3
    2098:	00004097          	auipc	ra,0x4
    209c:	aa4080e7          	jalr	-1372(ra) # 5b3c <close>
        for (int i = 0; i < ci + 1; i++) {
    20a0:	2a05                	addiw	s4,s4,1
    20a2:	fd4959e3          	bge	s2,s4,2074 <manywrites+0xce>
        unlink(name);
    20a6:	f9840513          	addi	a0,s0,-104
    20aa:	00004097          	auipc	ra,0x4
    20ae:	aba080e7          	jalr	-1350(ra) # 5b64 <unlink>
      for (int iters = 0; iters < howmany; iters++) {
    20b2:	fffd079b          	addiw	a5,s10,-1
    20b6:	8d3e                	mv	s10,a5
    20b8:	fbdd                	bnez	a5,206e <manywrites+0xc8>
      unlink(name);
    20ba:	f9840513          	addi	a0,s0,-104
    20be:	00004097          	auipc	ra,0x4
    20c2:	aa6080e7          	jalr	-1370(ra) # 5b64 <unlink>
      exit(0);
    20c6:	4501                	li	a0,0
    20c8:	00004097          	auipc	ra,0x4
    20cc:	a4c080e7          	jalr	-1460(ra) # 5b14 <exit>
            printf("%s: cannot create %s\n", s, name);
    20d0:	f9840613          	addi	a2,s0,-104
    20d4:	85e6                	mv	a1,s9
    20d6:	00005517          	auipc	a0,0x5
    20da:	a5250513          	addi	a0,a0,-1454 # 6b28 <malloc+0xbea>
    20de:	00004097          	auipc	ra,0x4
    20e2:	da4080e7          	jalr	-604(ra) # 5e82 <printf>
            exit(1);
    20e6:	4505                	li	a0,1
    20e8:	00004097          	auipc	ra,0x4
    20ec:	a2c080e7          	jalr	-1492(ra) # 5b14 <exit>
            printf("%s: write(%d) ret %d\n", s, sz, cc);
    20f0:	86aa                	mv	a3,a0
    20f2:	660d                	lui	a2,0x3
    20f4:	85e6                	mv	a1,s9
    20f6:	00004517          	auipc	a0,0x4
    20fa:	04a50513          	addi	a0,a0,74 # 6140 <malloc+0x202>
    20fe:	00004097          	auipc	ra,0x4
    2102:	d84080e7          	jalr	-636(ra) # 5e82 <printf>
            exit(1);
    2106:	4505                	li	a0,1
    2108:	00004097          	auipc	ra,0x4
    210c:	a0c080e7          	jalr	-1524(ra) # 5b14 <exit>
    2110:	e0d2                	sd	s4,64(sp)
    2112:	fc56                	sd	s5,56(sp)
    2114:	f85a                	sd	s6,48(sp)
    2116:	f45e                	sd	s7,40(sp)
    2118:	f062                	sd	s8,32(sp)
    211a:	e86a                	sd	s10,16(sp)
      exit(st);
    211c:	00004097          	auipc	ra,0x4
    2120:	9f8080e7          	jalr	-1544(ra) # 5b14 <exit>

0000000000002124 <forktest>:
void forktest(char *s) {
    2124:	7179                	addi	sp,sp,-48
    2126:	f406                	sd	ra,40(sp)
    2128:	f022                	sd	s0,32(sp)
    212a:	ec26                	sd	s1,24(sp)
    212c:	e84a                	sd	s2,16(sp)
    212e:	e44e                	sd	s3,8(sp)
    2130:	1800                	addi	s0,sp,48
    2132:	89aa                	mv	s3,a0
  for (n = 0; n < N; n++) {
    2134:	4481                	li	s1,0
    2136:	3e800913          	li	s2,1000
    pid = fork();
    213a:	00004097          	auipc	ra,0x4
    213e:	9d2080e7          	jalr	-1582(ra) # 5b0c <fork>
    if (pid < 0)
    2142:	08054263          	bltz	a0,21c6 <forktest+0xa2>
    if (pid == 0)
    2146:	c115                	beqz	a0,216a <forktest+0x46>
  for (n = 0; n < N; n++) {
    2148:	2485                	addiw	s1,s1,1
    214a:	ff2498e3          	bne	s1,s2,213a <forktest+0x16>
    printf("%s: fork claimed to work 1000 times!\n", s);
    214e:	85ce                	mv	a1,s3
    2150:	00005517          	auipc	a0,0x5
    2154:	a3850513          	addi	a0,a0,-1480 # 6b88 <malloc+0xc4a>
    2158:	00004097          	auipc	ra,0x4
    215c:	d2a080e7          	jalr	-726(ra) # 5e82 <printf>
    exit(1);
    2160:	4505                	li	a0,1
    2162:	00004097          	auipc	ra,0x4
    2166:	9b2080e7          	jalr	-1614(ra) # 5b14 <exit>
      exit(0);
    216a:	00004097          	auipc	ra,0x4
    216e:	9aa080e7          	jalr	-1622(ra) # 5b14 <exit>
    printf("%s: no fork at all!\n", s);
    2172:	85ce                	mv	a1,s3
    2174:	00005517          	auipc	a0,0x5
    2178:	9cc50513          	addi	a0,a0,-1588 # 6b40 <malloc+0xc02>
    217c:	00004097          	auipc	ra,0x4
    2180:	d06080e7          	jalr	-762(ra) # 5e82 <printf>
    exit(1);
    2184:	4505                	li	a0,1
    2186:	00004097          	auipc	ra,0x4
    218a:	98e080e7          	jalr	-1650(ra) # 5b14 <exit>
      printf("%s: wait stopped early\n", s);
    218e:	85ce                	mv	a1,s3
    2190:	00005517          	auipc	a0,0x5
    2194:	9c850513          	addi	a0,a0,-1592 # 6b58 <malloc+0xc1a>
    2198:	00004097          	auipc	ra,0x4
    219c:	cea080e7          	jalr	-790(ra) # 5e82 <printf>
      exit(1);
    21a0:	4505                	li	a0,1
    21a2:	00004097          	auipc	ra,0x4
    21a6:	972080e7          	jalr	-1678(ra) # 5b14 <exit>
    printf("%s: wait got too many\n", s);
    21aa:	85ce                	mv	a1,s3
    21ac:	00005517          	auipc	a0,0x5
    21b0:	9c450513          	addi	a0,a0,-1596 # 6b70 <malloc+0xc32>
    21b4:	00004097          	auipc	ra,0x4
    21b8:	cce080e7          	jalr	-818(ra) # 5e82 <printf>
    exit(1);
    21bc:	4505                	li	a0,1
    21be:	00004097          	auipc	ra,0x4
    21c2:	956080e7          	jalr	-1706(ra) # 5b14 <exit>
  if (n == 0) {
    21c6:	d4d5                	beqz	s1,2172 <forktest+0x4e>
  for (; n > 0; n--) {
    21c8:	00905b63          	blez	s1,21de <forktest+0xba>
    if (wait(0) < 0) {
    21cc:	4501                	li	a0,0
    21ce:	00004097          	auipc	ra,0x4
    21d2:	94e080e7          	jalr	-1714(ra) # 5b1c <wait>
    21d6:	fa054ce3          	bltz	a0,218e <forktest+0x6a>
  for (; n > 0; n--) {
    21da:	34fd                	addiw	s1,s1,-1
    21dc:	f8e5                	bnez	s1,21cc <forktest+0xa8>
  if (wait(0) != -1) {
    21de:	4501                	li	a0,0
    21e0:	00004097          	auipc	ra,0x4
    21e4:	93c080e7          	jalr	-1732(ra) # 5b1c <wait>
    21e8:	57fd                	li	a5,-1
    21ea:	fcf510e3          	bne	a0,a5,21aa <forktest+0x86>
}
    21ee:	70a2                	ld	ra,40(sp)
    21f0:	7402                	ld	s0,32(sp)
    21f2:	64e2                	ld	s1,24(sp)
    21f4:	6942                	ld	s2,16(sp)
    21f6:	69a2                	ld	s3,8(sp)
    21f8:	6145                	addi	sp,sp,48
    21fa:	8082                	ret

00000000000021fc <kernmem>:
void kernmem(char *s) {
    21fc:	715d                	addi	sp,sp,-80
    21fe:	e486                	sd	ra,72(sp)
    2200:	e0a2                	sd	s0,64(sp)
    2202:	fc26                	sd	s1,56(sp)
    2204:	f84a                	sd	s2,48(sp)
    2206:	f44e                	sd	s3,40(sp)
    2208:	f052                	sd	s4,32(sp)
    220a:	ec56                	sd	s5,24(sp)
    220c:	e85a                	sd	s6,16(sp)
    220e:	0880                	addi	s0,sp,80
    2210:	8b2a                	mv	s6,a0
  for (a = (char *)(KERNBASE); a < (char *)(KERNBASE + 2000000); a += 50000) {
    2212:	4485                	li	s1,1
    2214:	04fe                	slli	s1,s1,0x1f
    wait(&xstatus);
    2216:	fbc40a93          	addi	s5,s0,-68
    if (xstatus != -1) // did kernel kill child?
    221a:	5a7d                	li	s4,-1
  for (a = (char *)(KERNBASE); a < (char *)(KERNBASE + 2000000); a += 50000) {
    221c:	69b1                	lui	s3,0xc
    221e:	35098993          	addi	s3,s3,848 # c350 <uninit+0x1608>
    2222:	1003d937          	lui	s2,0x1003d
    2226:	090e                	slli	s2,s2,0x3
    2228:	48090913          	addi	s2,s2,1152 # 1003d480 <__BSS_END__+0x1002d018>
    pid = fork();
    222c:	00004097          	auipc	ra,0x4
    2230:	8e0080e7          	jalr	-1824(ra) # 5b0c <fork>
    if (pid < 0) {
    2234:	02054963          	bltz	a0,2266 <kernmem+0x6a>
    if (pid == 0) {
    2238:	c529                	beqz	a0,2282 <kernmem+0x86>
    wait(&xstatus);
    223a:	8556                	mv	a0,s5
    223c:	00004097          	auipc	ra,0x4
    2240:	8e0080e7          	jalr	-1824(ra) # 5b1c <wait>
    if (xstatus != -1) // did kernel kill child?
    2244:	fbc42783          	lw	a5,-68(s0)
    2248:	05479e63          	bne	a5,s4,22a4 <kernmem+0xa8>
  for (a = (char *)(KERNBASE); a < (char *)(KERNBASE + 2000000); a += 50000) {
    224c:	94ce                	add	s1,s1,s3
    224e:	fd249fe3          	bne	s1,s2,222c <kernmem+0x30>
}
    2252:	60a6                	ld	ra,72(sp)
    2254:	6406                	ld	s0,64(sp)
    2256:	74e2                	ld	s1,56(sp)
    2258:	7942                	ld	s2,48(sp)
    225a:	79a2                	ld	s3,40(sp)
    225c:	7a02                	ld	s4,32(sp)
    225e:	6ae2                	ld	s5,24(sp)
    2260:	6b42                	ld	s6,16(sp)
    2262:	6161                	addi	sp,sp,80
    2264:	8082                	ret
      printf("%s: fork failed\n", s);
    2266:	85da                	mv	a1,s6
    2268:	00004517          	auipc	a0,0x4
    226c:	66050513          	addi	a0,a0,1632 # 68c8 <malloc+0x98a>
    2270:	00004097          	auipc	ra,0x4
    2274:	c12080e7          	jalr	-1006(ra) # 5e82 <printf>
      exit(1);
    2278:	4505                	li	a0,1
    227a:	00004097          	auipc	ra,0x4
    227e:	89a080e7          	jalr	-1894(ra) # 5b14 <exit>
      printf("%s: oops could read %x = %x\n", s, a, *a);
    2282:	0004c683          	lbu	a3,0(s1)
    2286:	8626                	mv	a2,s1
    2288:	85da                	mv	a1,s6
    228a:	00005517          	auipc	a0,0x5
    228e:	92650513          	addi	a0,a0,-1754 # 6bb0 <malloc+0xc72>
    2292:	00004097          	auipc	ra,0x4
    2296:	bf0080e7          	jalr	-1040(ra) # 5e82 <printf>
      exit(1);
    229a:	4505                	li	a0,1
    229c:	00004097          	auipc	ra,0x4
    22a0:	878080e7          	jalr	-1928(ra) # 5b14 <exit>
      exit(1);
    22a4:	4505                	li	a0,1
    22a6:	00004097          	auipc	ra,0x4
    22aa:	86e080e7          	jalr	-1938(ra) # 5b14 <exit>

00000000000022ae <MAXVAplus>:
void MAXVAplus(char *s) {
    22ae:	7139                	addi	sp,sp,-64
    22b0:	fc06                	sd	ra,56(sp)
    22b2:	f822                	sd	s0,48(sp)
    22b4:	0080                	addi	s0,sp,64
  volatile uint64 a = MAXVA;
    22b6:	4785                	li	a5,1
    22b8:	179a                	slli	a5,a5,0x26
    22ba:	fcf43423          	sd	a5,-56(s0)
  for (; a != 0; a <<= 1) {
    22be:	fc843783          	ld	a5,-56(s0)
    22c2:	c3b9                	beqz	a5,2308 <MAXVAplus+0x5a>
    22c4:	f426                	sd	s1,40(sp)
    22c6:	f04a                	sd	s2,32(sp)
    22c8:	ec4e                	sd	s3,24(sp)
    22ca:	89aa                	mv	s3,a0
    wait(&xstatus);
    22cc:	fc440913          	addi	s2,s0,-60
    if (xstatus != -1) // did kernel kill child?
    22d0:	54fd                	li	s1,-1
    pid = fork();
    22d2:	00004097          	auipc	ra,0x4
    22d6:	83a080e7          	jalr	-1990(ra) # 5b0c <fork>
    if (pid < 0) {
    22da:	02054b63          	bltz	a0,2310 <MAXVAplus+0x62>
    if (pid == 0) {
    22de:	c539                	beqz	a0,232c <MAXVAplus+0x7e>
    wait(&xstatus);
    22e0:	854a                	mv	a0,s2
    22e2:	00004097          	auipc	ra,0x4
    22e6:	83a080e7          	jalr	-1990(ra) # 5b1c <wait>
    if (xstatus != -1) // did kernel kill child?
    22ea:	fc442783          	lw	a5,-60(s0)
    22ee:	06979563          	bne	a5,s1,2358 <MAXVAplus+0xaa>
  for (; a != 0; a <<= 1) {
    22f2:	fc843783          	ld	a5,-56(s0)
    22f6:	0786                	slli	a5,a5,0x1
    22f8:	fcf43423          	sd	a5,-56(s0)
    22fc:	fc843783          	ld	a5,-56(s0)
    2300:	fbe9                	bnez	a5,22d2 <MAXVAplus+0x24>
    2302:	74a2                	ld	s1,40(sp)
    2304:	7902                	ld	s2,32(sp)
    2306:	69e2                	ld	s3,24(sp)
}
    2308:	70e2                	ld	ra,56(sp)
    230a:	7442                	ld	s0,48(sp)
    230c:	6121                	addi	sp,sp,64
    230e:	8082                	ret
      printf("%s: fork failed\n", s);
    2310:	85ce                	mv	a1,s3
    2312:	00004517          	auipc	a0,0x4
    2316:	5b650513          	addi	a0,a0,1462 # 68c8 <malloc+0x98a>
    231a:	00004097          	auipc	ra,0x4
    231e:	b68080e7          	jalr	-1176(ra) # 5e82 <printf>
      exit(1);
    2322:	4505                	li	a0,1
    2324:	00003097          	auipc	ra,0x3
    2328:	7f0080e7          	jalr	2032(ra) # 5b14 <exit>
      *(char *)a = 99;
    232c:	fc843783          	ld	a5,-56(s0)
    2330:	06300713          	li	a4,99
    2334:	00e78023          	sb	a4,0(a5)
      printf("%s: oops wrote %x\n", s, a);
    2338:	fc843603          	ld	a2,-56(s0)
    233c:	85ce                	mv	a1,s3
    233e:	00005517          	auipc	a0,0x5
    2342:	89250513          	addi	a0,a0,-1902 # 6bd0 <malloc+0xc92>
    2346:	00004097          	auipc	ra,0x4
    234a:	b3c080e7          	jalr	-1220(ra) # 5e82 <printf>
      exit(1);
    234e:	4505                	li	a0,1
    2350:	00003097          	auipc	ra,0x3
    2354:	7c4080e7          	jalr	1988(ra) # 5b14 <exit>
      exit(1);
    2358:	4505                	li	a0,1
    235a:	00003097          	auipc	ra,0x3
    235e:	7ba080e7          	jalr	1978(ra) # 5b14 <exit>

0000000000002362 <bigargtest>:
void bigargtest(char *s) {
    2362:	7179                	addi	sp,sp,-48
    2364:	f406                	sd	ra,40(sp)
    2366:	f022                	sd	s0,32(sp)
    2368:	ec26                	sd	s1,24(sp)
    236a:	1800                	addi	s0,sp,48
    236c:	84aa                	mv	s1,a0
  unlink("bigarg-ok");
    236e:	00005517          	auipc	a0,0x5
    2372:	87a50513          	addi	a0,a0,-1926 # 6be8 <malloc+0xcaa>
    2376:	00003097          	auipc	ra,0x3
    237a:	7ee080e7          	jalr	2030(ra) # 5b64 <unlink>
  pid = fork();
    237e:	00003097          	auipc	ra,0x3
    2382:	78e080e7          	jalr	1934(ra) # 5b0c <fork>
  if (pid == 0) {
    2386:	c121                	beqz	a0,23c6 <bigargtest+0x64>
  } else if (pid < 0) {
    2388:	0a054263          	bltz	a0,242c <bigargtest+0xca>
  wait(&xstatus);
    238c:	fdc40513          	addi	a0,s0,-36
    2390:	00003097          	auipc	ra,0x3
    2394:	78c080e7          	jalr	1932(ra) # 5b1c <wait>
  if (xstatus != 0)
    2398:	fdc42503          	lw	a0,-36(s0)
    239c:	e555                	bnez	a0,2448 <bigargtest+0xe6>
  fd = open("bigarg-ok", 0);
    239e:	4581                	li	a1,0
    23a0:	00005517          	auipc	a0,0x5
    23a4:	84850513          	addi	a0,a0,-1976 # 6be8 <malloc+0xcaa>
    23a8:	00003097          	auipc	ra,0x3
    23ac:	7ac080e7          	jalr	1964(ra) # 5b54 <open>
  if (fd < 0) {
    23b0:	0a054063          	bltz	a0,2450 <bigargtest+0xee>
  close(fd);
    23b4:	00003097          	auipc	ra,0x3
    23b8:	788080e7          	jalr	1928(ra) # 5b3c <close>
}
    23bc:	70a2                	ld	ra,40(sp)
    23be:	7402                	ld	s0,32(sp)
    23c0:	64e2                	ld	s1,24(sp)
    23c2:	6145                	addi	sp,sp,48
    23c4:	8082                	ret
    23c6:	00008797          	auipc	a5,0x8
    23ca:	87a78793          	addi	a5,a5,-1926 # 9c40 <args.1>
    23ce:	00008697          	auipc	a3,0x8
    23d2:	96a68693          	addi	a3,a3,-1686 # 9d38 <args.1+0xf8>
      args[i] = "bigargs test: failed\n                                        "
    23d6:	00005717          	auipc	a4,0x5
    23da:	82270713          	addi	a4,a4,-2014 # 6bf8 <malloc+0xcba>
    23de:	e398                	sd	a4,0(a5)
    for (i = 0; i < MAXARG - 1; i++)
    23e0:	07a1                	addi	a5,a5,8
    23e2:	fed79ee3          	bne	a5,a3,23de <bigargtest+0x7c>
    args[MAXARG - 1] = 0;
    23e6:	00008797          	auipc	a5,0x8
    23ea:	9407b923          	sd	zero,-1710(a5) # 9d38 <args.1+0xf8>
    exec("echo", args);
    23ee:	00008597          	auipc	a1,0x8
    23f2:	85258593          	addi	a1,a1,-1966 # 9c40 <args.1>
    23f6:	00004517          	auipc	a0,0x4
    23fa:	c7a50513          	addi	a0,a0,-902 # 6070 <malloc+0x132>
    23fe:	00003097          	auipc	ra,0x3
    2402:	74e080e7          	jalr	1870(ra) # 5b4c <exec>
    fd = open("bigarg-ok", O_CREATE);
    2406:	20000593          	li	a1,512
    240a:	00004517          	auipc	a0,0x4
    240e:	7de50513          	addi	a0,a0,2014 # 6be8 <malloc+0xcaa>
    2412:	00003097          	auipc	ra,0x3
    2416:	742080e7          	jalr	1858(ra) # 5b54 <open>
    close(fd);
    241a:	00003097          	auipc	ra,0x3
    241e:	722080e7          	jalr	1826(ra) # 5b3c <close>
    exit(0);
    2422:	4501                	li	a0,0
    2424:	00003097          	auipc	ra,0x3
    2428:	6f0080e7          	jalr	1776(ra) # 5b14 <exit>
    printf("%s: bigargtest: fork failed\n", s);
    242c:	85a6                	mv	a1,s1
    242e:	00005517          	auipc	a0,0x5
    2432:	8aa50513          	addi	a0,a0,-1878 # 6cd8 <malloc+0xd9a>
    2436:	00004097          	auipc	ra,0x4
    243a:	a4c080e7          	jalr	-1460(ra) # 5e82 <printf>
    exit(1);
    243e:	4505                	li	a0,1
    2440:	00003097          	auipc	ra,0x3
    2444:	6d4080e7          	jalr	1748(ra) # 5b14 <exit>
    exit(xstatus);
    2448:	00003097          	auipc	ra,0x3
    244c:	6cc080e7          	jalr	1740(ra) # 5b14 <exit>
    printf("%s: bigarg test failed!\n", s);
    2450:	85a6                	mv	a1,s1
    2452:	00005517          	auipc	a0,0x5
    2456:	8a650513          	addi	a0,a0,-1882 # 6cf8 <malloc+0xdba>
    245a:	00004097          	auipc	ra,0x4
    245e:	a28080e7          	jalr	-1496(ra) # 5e82 <printf>
    exit(1);
    2462:	4505                	li	a0,1
    2464:	00003097          	auipc	ra,0x3
    2468:	6b0080e7          	jalr	1712(ra) # 5b14 <exit>

000000000000246c <stacktest>:
void stacktest(char *s) {
    246c:	7179                	addi	sp,sp,-48
    246e:	f406                	sd	ra,40(sp)
    2470:	f022                	sd	s0,32(sp)
    2472:	ec26                	sd	s1,24(sp)
    2474:	1800                	addi	s0,sp,48
    2476:	84aa                	mv	s1,a0
  pid = fork();
    2478:	00003097          	auipc	ra,0x3
    247c:	694080e7          	jalr	1684(ra) # 5b0c <fork>
  if (pid == 0) {
    2480:	c115                	beqz	a0,24a4 <stacktest+0x38>
  } else if (pid < 0) {
    2482:	04054463          	bltz	a0,24ca <stacktest+0x5e>
  wait(&xstatus);
    2486:	fdc40513          	addi	a0,s0,-36
    248a:	00003097          	auipc	ra,0x3
    248e:	692080e7          	jalr	1682(ra) # 5b1c <wait>
  if (xstatus == -1) // kernel killed child?
    2492:	fdc42503          	lw	a0,-36(s0)
    2496:	57fd                	li	a5,-1
    2498:	04f50763          	beq	a0,a5,24e6 <stacktest+0x7a>
    exit(xstatus);
    249c:	00003097          	auipc	ra,0x3
    24a0:	678080e7          	jalr	1656(ra) # 5b14 <exit>

static inline uint64
r_sp()
{
  uint64 x;
  asm volatile("mv %0, sp" : "=r" (x) );
    24a4:	878a                	mv	a5,sp
    printf("%s: stacktest: read below stack %p\n", s, *sp);
    24a6:	80078793          	addi	a5,a5,-2048
    24aa:	8007c603          	lbu	a2,-2048(a5)
    24ae:	85a6                	mv	a1,s1
    24b0:	00005517          	auipc	a0,0x5
    24b4:	86850513          	addi	a0,a0,-1944 # 6d18 <malloc+0xdda>
    24b8:	00004097          	auipc	ra,0x4
    24bc:	9ca080e7          	jalr	-1590(ra) # 5e82 <printf>
    exit(1);
    24c0:	4505                	li	a0,1
    24c2:	00003097          	auipc	ra,0x3
    24c6:	652080e7          	jalr	1618(ra) # 5b14 <exit>
    printf("%s: fork failed\n", s);
    24ca:	85a6                	mv	a1,s1
    24cc:	00004517          	auipc	a0,0x4
    24d0:	3fc50513          	addi	a0,a0,1020 # 68c8 <malloc+0x98a>
    24d4:	00004097          	auipc	ra,0x4
    24d8:	9ae080e7          	jalr	-1618(ra) # 5e82 <printf>
    exit(1);
    24dc:	4505                	li	a0,1
    24de:	00003097          	auipc	ra,0x3
    24e2:	636080e7          	jalr	1590(ra) # 5b14 <exit>
    exit(0);
    24e6:	4501                	li	a0,0
    24e8:	00003097          	auipc	ra,0x3
    24ec:	62c080e7          	jalr	1580(ra) # 5b14 <exit>

00000000000024f0 <copyinstr3>:
void copyinstr3(char *s) {
    24f0:	7179                	addi	sp,sp,-48
    24f2:	f406                	sd	ra,40(sp)
    24f4:	f022                	sd	s0,32(sp)
    24f6:	ec26                	sd	s1,24(sp)
    24f8:	1800                	addi	s0,sp,48
  sbrk(8192);
    24fa:	6509                	lui	a0,0x2
    24fc:	00003097          	auipc	ra,0x3
    2500:	6a0080e7          	jalr	1696(ra) # 5b9c <sbrk>
  uint64 top = (uint64)sbrk(0);
    2504:	4501                	li	a0,0
    2506:	00003097          	auipc	ra,0x3
    250a:	696080e7          	jalr	1686(ra) # 5b9c <sbrk>
  if ((top % PGSIZE) != 0) {
    250e:	03451793          	slli	a5,a0,0x34
    2512:	e3c9                	bnez	a5,2594 <copyinstr3+0xa4>
  top = (uint64)sbrk(0);
    2514:	4501                	li	a0,0
    2516:	00003097          	auipc	ra,0x3
    251a:	686080e7          	jalr	1670(ra) # 5b9c <sbrk>
  if (top % PGSIZE) {
    251e:	03451793          	slli	a5,a0,0x34
    2522:	e3d9                	bnez	a5,25a8 <copyinstr3+0xb8>
  char *b = (char *)(top - 1);
    2524:	fff50493          	addi	s1,a0,-1 # 1fff <manywrites+0x59>
  *b = 'x';
    2528:	07800793          	li	a5,120
    252c:	fef50fa3          	sb	a5,-1(a0)
  int ret = unlink(b);
    2530:	8526                	mv	a0,s1
    2532:	00003097          	auipc	ra,0x3
    2536:	632080e7          	jalr	1586(ra) # 5b64 <unlink>
  if (ret != -1) {
    253a:	57fd                	li	a5,-1
    253c:	08f51363          	bne	a0,a5,25c2 <copyinstr3+0xd2>
  int fd = open(b, O_CREATE | O_WRONLY);
    2540:	20100593          	li	a1,513
    2544:	8526                	mv	a0,s1
    2546:	00003097          	auipc	ra,0x3
    254a:	60e080e7          	jalr	1550(ra) # 5b54 <open>
  if (fd != -1) {
    254e:	57fd                	li	a5,-1
    2550:	08f51863          	bne	a0,a5,25e0 <copyinstr3+0xf0>
  ret = link(b, b);
    2554:	85a6                	mv	a1,s1
    2556:	8526                	mv	a0,s1
    2558:	00003097          	auipc	ra,0x3
    255c:	61c080e7          	jalr	1564(ra) # 5b74 <link>
  if (ret != -1) {
    2560:	57fd                	li	a5,-1
    2562:	08f51e63          	bne	a0,a5,25fe <copyinstr3+0x10e>
  char *args[] = {"xx", 0};
    2566:	00005797          	auipc	a5,0x5
    256a:	45a78793          	addi	a5,a5,1114 # 79c0 <malloc+0x1a82>
    256e:	fcf43823          	sd	a5,-48(s0)
    2572:	fc043c23          	sd	zero,-40(s0)
  ret = exec(b, args);
    2576:	fd040593          	addi	a1,s0,-48
    257a:	8526                	mv	a0,s1
    257c:	00003097          	auipc	ra,0x3
    2580:	5d0080e7          	jalr	1488(ra) # 5b4c <exec>
  if (ret != -1) {
    2584:	57fd                	li	a5,-1
    2586:	08f51c63          	bne	a0,a5,261e <copyinstr3+0x12e>
}
    258a:	70a2                	ld	ra,40(sp)
    258c:	7402                	ld	s0,32(sp)
    258e:	64e2                	ld	s1,24(sp)
    2590:	6145                	addi	sp,sp,48
    2592:	8082                	ret
    sbrk(PGSIZE - (top % PGSIZE));
    2594:	0347d513          	srli	a0,a5,0x34
    2598:	6785                	lui	a5,0x1
    259a:	40a7853b          	subw	a0,a5,a0
    259e:	00003097          	auipc	ra,0x3
    25a2:	5fe080e7          	jalr	1534(ra) # 5b9c <sbrk>
    25a6:	b7bd                	j	2514 <copyinstr3+0x24>
    printf("oops\n");
    25a8:	00004517          	auipc	a0,0x4
    25ac:	79850513          	addi	a0,a0,1944 # 6d40 <malloc+0xe02>
    25b0:	00004097          	auipc	ra,0x4
    25b4:	8d2080e7          	jalr	-1838(ra) # 5e82 <printf>
    exit(1);
    25b8:	4505                	li	a0,1
    25ba:	00003097          	auipc	ra,0x3
    25be:	55a080e7          	jalr	1370(ra) # 5b14 <exit>
    printf("unlink(%s) returned %d, not -1\n", b, ret);
    25c2:	862a                	mv	a2,a0
    25c4:	85a6                	mv	a1,s1
    25c6:	00004517          	auipc	a0,0x4
    25ca:	22250513          	addi	a0,a0,546 # 67e8 <malloc+0x8aa>
    25ce:	00004097          	auipc	ra,0x4
    25d2:	8b4080e7          	jalr	-1868(ra) # 5e82 <printf>
    exit(1);
    25d6:	4505                	li	a0,1
    25d8:	00003097          	auipc	ra,0x3
    25dc:	53c080e7          	jalr	1340(ra) # 5b14 <exit>
    printf("open(%s) returned %d, not -1\n", b, fd);
    25e0:	862a                	mv	a2,a0
    25e2:	85a6                	mv	a1,s1
    25e4:	00004517          	auipc	a0,0x4
    25e8:	22450513          	addi	a0,a0,548 # 6808 <malloc+0x8ca>
    25ec:	00004097          	auipc	ra,0x4
    25f0:	896080e7          	jalr	-1898(ra) # 5e82 <printf>
    exit(1);
    25f4:	4505                	li	a0,1
    25f6:	00003097          	auipc	ra,0x3
    25fa:	51e080e7          	jalr	1310(ra) # 5b14 <exit>
    printf("link(%s, %s) returned %d, not -1\n", b, b, ret);
    25fe:	86aa                	mv	a3,a0
    2600:	8626                	mv	a2,s1
    2602:	85a6                	mv	a1,s1
    2604:	00004517          	auipc	a0,0x4
    2608:	22450513          	addi	a0,a0,548 # 6828 <malloc+0x8ea>
    260c:	00004097          	auipc	ra,0x4
    2610:	876080e7          	jalr	-1930(ra) # 5e82 <printf>
    exit(1);
    2614:	4505                	li	a0,1
    2616:	00003097          	auipc	ra,0x3
    261a:	4fe080e7          	jalr	1278(ra) # 5b14 <exit>
    printf("exec(%s) returned %d, not -1\n", b, fd);
    261e:	863e                	mv	a2,a5
    2620:	85a6                	mv	a1,s1
    2622:	00004517          	auipc	a0,0x4
    2626:	22e50513          	addi	a0,a0,558 # 6850 <malloc+0x912>
    262a:	00004097          	auipc	ra,0x4
    262e:	858080e7          	jalr	-1960(ra) # 5e82 <printf>
    exit(1);
    2632:	4505                	li	a0,1
    2634:	00003097          	auipc	ra,0x3
    2638:	4e0080e7          	jalr	1248(ra) # 5b14 <exit>

000000000000263c <rwsbrk>:
void rwsbrk(char *s) {
    263c:	1101                	addi	sp,sp,-32
    263e:	ec06                	sd	ra,24(sp)
    2640:	e822                	sd	s0,16(sp)
    2642:	1000                	addi	s0,sp,32
  uint64 a = (uint64)sbrk(8192);
    2644:	6509                	lui	a0,0x2
    2646:	00003097          	auipc	ra,0x3
    264a:	556080e7          	jalr	1366(ra) # 5b9c <sbrk>
  if (a == 0xffffffffffffffffLL) {
    264e:	57fd                	li	a5,-1
    2650:	06f50463          	beq	a0,a5,26b8 <rwsbrk+0x7c>
    2654:	e426                	sd	s1,8(sp)
    2656:	84aa                	mv	s1,a0
  if ((uint64)sbrk(-8192) == 0xffffffffffffffffLL) {
    2658:	7579                	lui	a0,0xffffe
    265a:	00003097          	auipc	ra,0x3
    265e:	542080e7          	jalr	1346(ra) # 5b9c <sbrk>
    2662:	57fd                	li	a5,-1
    2664:	06f50963          	beq	a0,a5,26d6 <rwsbrk+0x9a>
    2668:	e04a                	sd	s2,0(sp)
  fd = open("rwsbrk", O_CREATE | O_WRONLY);
    266a:	20100593          	li	a1,513
    266e:	00004517          	auipc	a0,0x4
    2672:	71250513          	addi	a0,a0,1810 # 6d80 <malloc+0xe42>
    2676:	00003097          	auipc	ra,0x3
    267a:	4de080e7          	jalr	1246(ra) # 5b54 <open>
    267e:	892a                	mv	s2,a0
  if (fd < 0) {
    2680:	06054963          	bltz	a0,26f2 <rwsbrk+0xb6>
  n = write(fd, (void *)(a + 4096), 1024);
    2684:	6785                	lui	a5,0x1
    2686:	94be                	add	s1,s1,a5
    2688:	40000613          	li	a2,1024
    268c:	85a6                	mv	a1,s1
    268e:	00003097          	auipc	ra,0x3
    2692:	4a6080e7          	jalr	1190(ra) # 5b34 <write>
    2696:	862a                	mv	a2,a0
  if (n >= 0) {
    2698:	06054a63          	bltz	a0,270c <rwsbrk+0xd0>
    printf("write(fd, %p, 1024) returned %d, not -1\n", a + 4096, n);
    269c:	85a6                	mv	a1,s1
    269e:	00004517          	auipc	a0,0x4
    26a2:	70250513          	addi	a0,a0,1794 # 6da0 <malloc+0xe62>
    26a6:	00003097          	auipc	ra,0x3
    26aa:	7dc080e7          	jalr	2012(ra) # 5e82 <printf>
    exit(1);
    26ae:	4505                	li	a0,1
    26b0:	00003097          	auipc	ra,0x3
    26b4:	464080e7          	jalr	1124(ra) # 5b14 <exit>
    26b8:	e426                	sd	s1,8(sp)
    26ba:	e04a                	sd	s2,0(sp)
    printf("sbrk(rwsbrk) failed\n");
    26bc:	00004517          	auipc	a0,0x4
    26c0:	68c50513          	addi	a0,a0,1676 # 6d48 <malloc+0xe0a>
    26c4:	00003097          	auipc	ra,0x3
    26c8:	7be080e7          	jalr	1982(ra) # 5e82 <printf>
    exit(1);
    26cc:	4505                	li	a0,1
    26ce:	00003097          	auipc	ra,0x3
    26d2:	446080e7          	jalr	1094(ra) # 5b14 <exit>
    26d6:	e04a                	sd	s2,0(sp)
    printf("sbrk(rwsbrk) shrink failed\n");
    26d8:	00004517          	auipc	a0,0x4
    26dc:	68850513          	addi	a0,a0,1672 # 6d60 <malloc+0xe22>
    26e0:	00003097          	auipc	ra,0x3
    26e4:	7a2080e7          	jalr	1954(ra) # 5e82 <printf>
    exit(1);
    26e8:	4505                	li	a0,1
    26ea:	00003097          	auipc	ra,0x3
    26ee:	42a080e7          	jalr	1066(ra) # 5b14 <exit>
    printf("open(rwsbrk) failed\n");
    26f2:	00004517          	auipc	a0,0x4
    26f6:	69650513          	addi	a0,a0,1686 # 6d88 <malloc+0xe4a>
    26fa:	00003097          	auipc	ra,0x3
    26fe:	788080e7          	jalr	1928(ra) # 5e82 <printf>
    exit(1);
    2702:	4505                	li	a0,1
    2704:	00003097          	auipc	ra,0x3
    2708:	410080e7          	jalr	1040(ra) # 5b14 <exit>
  close(fd);
    270c:	854a                	mv	a0,s2
    270e:	00003097          	auipc	ra,0x3
    2712:	42e080e7          	jalr	1070(ra) # 5b3c <close>
  unlink("rwsbrk");
    2716:	00004517          	auipc	a0,0x4
    271a:	66a50513          	addi	a0,a0,1642 # 6d80 <malloc+0xe42>
    271e:	00003097          	auipc	ra,0x3
    2722:	446080e7          	jalr	1094(ra) # 5b64 <unlink>
  fd = open("README", O_RDONLY);
    2726:	4581                	li	a1,0
    2728:	00004517          	auipc	a0,0x4
    272c:	af050513          	addi	a0,a0,-1296 # 6218 <malloc+0x2da>
    2730:	00003097          	auipc	ra,0x3
    2734:	424080e7          	jalr	1060(ra) # 5b54 <open>
    2738:	892a                	mv	s2,a0
  if (fd < 0) {
    273a:	02054963          	bltz	a0,276c <rwsbrk+0x130>
  n = read(fd, (void *)(a + 4096), 10);
    273e:	4629                	li	a2,10
    2740:	85a6                	mv	a1,s1
    2742:	00003097          	auipc	ra,0x3
    2746:	3ea080e7          	jalr	1002(ra) # 5b2c <read>
    274a:	862a                	mv	a2,a0
  if (n >= 0) {
    274c:	02054d63          	bltz	a0,2786 <rwsbrk+0x14a>
    printf("read(fd, %p, 10) returned %d, not -1\n", a + 4096, n);
    2750:	85a6                	mv	a1,s1
    2752:	00004517          	auipc	a0,0x4
    2756:	67e50513          	addi	a0,a0,1662 # 6dd0 <malloc+0xe92>
    275a:	00003097          	auipc	ra,0x3
    275e:	728080e7          	jalr	1832(ra) # 5e82 <printf>
    exit(1);
    2762:	4505                	li	a0,1
    2764:	00003097          	auipc	ra,0x3
    2768:	3b0080e7          	jalr	944(ra) # 5b14 <exit>
    printf("open(rwsbrk) failed\n");
    276c:	00004517          	auipc	a0,0x4
    2770:	61c50513          	addi	a0,a0,1564 # 6d88 <malloc+0xe4a>
    2774:	00003097          	auipc	ra,0x3
    2778:	70e080e7          	jalr	1806(ra) # 5e82 <printf>
    exit(1);
    277c:	4505                	li	a0,1
    277e:	00003097          	auipc	ra,0x3
    2782:	396080e7          	jalr	918(ra) # 5b14 <exit>
  close(fd);
    2786:	854a                	mv	a0,s2
    2788:	00003097          	auipc	ra,0x3
    278c:	3b4080e7          	jalr	948(ra) # 5b3c <close>
  exit(0);
    2790:	4501                	li	a0,0
    2792:	00003097          	auipc	ra,0x3
    2796:	382080e7          	jalr	898(ra) # 5b14 <exit>

000000000000279a <sbrkbasic>:
void sbrkbasic(char *s) {
    279a:	715d                	addi	sp,sp,-80
    279c:	e486                	sd	ra,72(sp)
    279e:	e0a2                	sd	s0,64(sp)
    27a0:	ec56                	sd	s5,24(sp)
    27a2:	0880                	addi	s0,sp,80
    27a4:	8aaa                	mv	s5,a0
  pid = fork();
    27a6:	00003097          	auipc	ra,0x3
    27aa:	366080e7          	jalr	870(ra) # 5b0c <fork>
  if (pid < 0) {
    27ae:	04054063          	bltz	a0,27ee <sbrkbasic+0x54>
  if (pid == 0) {
    27b2:	e925                	bnez	a0,2822 <sbrkbasic+0x88>
    a = sbrk(TOOMUCH);
    27b4:	40000537          	lui	a0,0x40000
    27b8:	00003097          	auipc	ra,0x3
    27bc:	3e4080e7          	jalr	996(ra) # 5b9c <sbrk>
    if (a == (char *)0xffffffffffffffffL) {
    27c0:	57fd                	li	a5,-1
    27c2:	04f50763          	beq	a0,a5,2810 <sbrkbasic+0x76>
    27c6:	fc26                	sd	s1,56(sp)
    27c8:	f84a                	sd	s2,48(sp)
    27ca:	f44e                	sd	s3,40(sp)
    27cc:	f052                	sd	s4,32(sp)
    for (b = a; b < a + TOOMUCH; b += 4096) {
    27ce:	400007b7          	lui	a5,0x40000
    27d2:	97aa                	add	a5,a5,a0
      *b = 99;
    27d4:	06300693          	li	a3,99
    for (b = a; b < a + TOOMUCH; b += 4096) {
    27d8:	6705                	lui	a4,0x1
      *b = 99;
    27da:	00d50023          	sb	a3,0(a0) # 40000000 <__BSS_END__+0x3ffefb98>
    for (b = a; b < a + TOOMUCH; b += 4096) {
    27de:	953a                	add	a0,a0,a4
    27e0:	fef51de3          	bne	a0,a5,27da <sbrkbasic+0x40>
    exit(1);
    27e4:	4505                	li	a0,1
    27e6:	00003097          	auipc	ra,0x3
    27ea:	32e080e7          	jalr	814(ra) # 5b14 <exit>
    27ee:	fc26                	sd	s1,56(sp)
    27f0:	f84a                	sd	s2,48(sp)
    27f2:	f44e                	sd	s3,40(sp)
    27f4:	f052                	sd	s4,32(sp)
    printf("fork failed in sbrkbasic\n");
    27f6:	00004517          	auipc	a0,0x4
    27fa:	60250513          	addi	a0,a0,1538 # 6df8 <malloc+0xeba>
    27fe:	00003097          	auipc	ra,0x3
    2802:	684080e7          	jalr	1668(ra) # 5e82 <printf>
    exit(1);
    2806:	4505                	li	a0,1
    2808:	00003097          	auipc	ra,0x3
    280c:	30c080e7          	jalr	780(ra) # 5b14 <exit>
    2810:	fc26                	sd	s1,56(sp)
    2812:	f84a                	sd	s2,48(sp)
    2814:	f44e                	sd	s3,40(sp)
    2816:	f052                	sd	s4,32(sp)
      exit(0);
    2818:	4501                	li	a0,0
    281a:	00003097          	auipc	ra,0x3
    281e:	2fa080e7          	jalr	762(ra) # 5b14 <exit>
  wait(&xstatus);
    2822:	fbc40513          	addi	a0,s0,-68
    2826:	00003097          	auipc	ra,0x3
    282a:	2f6080e7          	jalr	758(ra) # 5b1c <wait>
  if (xstatus == 1) {
    282e:	fbc42703          	lw	a4,-68(s0)
    2832:	4785                	li	a5,1
    2834:	02f70263          	beq	a4,a5,2858 <sbrkbasic+0xbe>
    2838:	fc26                	sd	s1,56(sp)
    283a:	f84a                	sd	s2,48(sp)
    283c:	f44e                	sd	s3,40(sp)
    283e:	f052                	sd	s4,32(sp)
  a = sbrk(0);
    2840:	4501                	li	a0,0
    2842:	00003097          	auipc	ra,0x3
    2846:	35a080e7          	jalr	858(ra) # 5b9c <sbrk>
    284a:	84aa                	mv	s1,a0
  for (i = 0; i < 5000; i++) {
    284c:	4901                	li	s2,0
    b = sbrk(1);
    284e:	4985                	li	s3,1
  for (i = 0; i < 5000; i++) {
    2850:	6a05                	lui	s4,0x1
    2852:	388a0a13          	addi	s4,s4,904 # 1388 <copyinstr2+0x176>
    2856:	a025                	j	287e <sbrkbasic+0xe4>
    2858:	fc26                	sd	s1,56(sp)
    285a:	f84a                	sd	s2,48(sp)
    285c:	f44e                	sd	s3,40(sp)
    285e:	f052                	sd	s4,32(sp)
    printf("%s: too much memory allocated!\n", s);
    2860:	85d6                	mv	a1,s5
    2862:	00004517          	auipc	a0,0x4
    2866:	5b650513          	addi	a0,a0,1462 # 6e18 <malloc+0xeda>
    286a:	00003097          	auipc	ra,0x3
    286e:	618080e7          	jalr	1560(ra) # 5e82 <printf>
    exit(1);
    2872:	4505                	li	a0,1
    2874:	00003097          	auipc	ra,0x3
    2878:	2a0080e7          	jalr	672(ra) # 5b14 <exit>
    287c:	84be                	mv	s1,a5
    b = sbrk(1);
    287e:	854e                	mv	a0,s3
    2880:	00003097          	auipc	ra,0x3
    2884:	31c080e7          	jalr	796(ra) # 5b9c <sbrk>
    if (b != a) {
    2888:	04951b63          	bne	a0,s1,28de <sbrkbasic+0x144>
    *b = 1;
    288c:	01348023          	sb	s3,0(s1)
    a = b + 1;
    2890:	00148793          	addi	a5,s1,1
  for (i = 0; i < 5000; i++) {
    2894:	2905                	addiw	s2,s2,1
    2896:	ff4913e3          	bne	s2,s4,287c <sbrkbasic+0xe2>
  pid = fork();
    289a:	00003097          	auipc	ra,0x3
    289e:	272080e7          	jalr	626(ra) # 5b0c <fork>
    28a2:	892a                	mv	s2,a0
  if (pid < 0) {
    28a4:	04054e63          	bltz	a0,2900 <sbrkbasic+0x166>
  c = sbrk(1);
    28a8:	4505                	li	a0,1
    28aa:	00003097          	auipc	ra,0x3
    28ae:	2f2080e7          	jalr	754(ra) # 5b9c <sbrk>
  c = sbrk(1);
    28b2:	4505                	li	a0,1
    28b4:	00003097          	auipc	ra,0x3
    28b8:	2e8080e7          	jalr	744(ra) # 5b9c <sbrk>
  if (c != a + 1) {
    28bc:	0489                	addi	s1,s1,2
    28be:	04950f63          	beq	a0,s1,291c <sbrkbasic+0x182>
    printf("%s: sbrk test failed post-fork\n", s);
    28c2:	85d6                	mv	a1,s5
    28c4:	00004517          	auipc	a0,0x4
    28c8:	5b450513          	addi	a0,a0,1460 # 6e78 <malloc+0xf3a>
    28cc:	00003097          	auipc	ra,0x3
    28d0:	5b6080e7          	jalr	1462(ra) # 5e82 <printf>
    exit(1);
    28d4:	4505                	li	a0,1
    28d6:	00003097          	auipc	ra,0x3
    28da:	23e080e7          	jalr	574(ra) # 5b14 <exit>
      printf("%s: sbrk test failed %d %x %x\n", s, i, a, b);
    28de:	872a                	mv	a4,a0
    28e0:	86a6                	mv	a3,s1
    28e2:	864a                	mv	a2,s2
    28e4:	85d6                	mv	a1,s5
    28e6:	00004517          	auipc	a0,0x4
    28ea:	55250513          	addi	a0,a0,1362 # 6e38 <malloc+0xefa>
    28ee:	00003097          	auipc	ra,0x3
    28f2:	594080e7          	jalr	1428(ra) # 5e82 <printf>
      exit(1);
    28f6:	4505                	li	a0,1
    28f8:	00003097          	auipc	ra,0x3
    28fc:	21c080e7          	jalr	540(ra) # 5b14 <exit>
    printf("%s: sbrk test fork failed\n", s);
    2900:	85d6                	mv	a1,s5
    2902:	00004517          	auipc	a0,0x4
    2906:	55650513          	addi	a0,a0,1366 # 6e58 <malloc+0xf1a>
    290a:	00003097          	auipc	ra,0x3
    290e:	578080e7          	jalr	1400(ra) # 5e82 <printf>
    exit(1);
    2912:	4505                	li	a0,1
    2914:	00003097          	auipc	ra,0x3
    2918:	200080e7          	jalr	512(ra) # 5b14 <exit>
  if (pid == 0)
    291c:	00091763          	bnez	s2,292a <sbrkbasic+0x190>
    exit(0);
    2920:	4501                	li	a0,0
    2922:	00003097          	auipc	ra,0x3
    2926:	1f2080e7          	jalr	498(ra) # 5b14 <exit>
  wait(&xstatus);
    292a:	fbc40513          	addi	a0,s0,-68
    292e:	00003097          	auipc	ra,0x3
    2932:	1ee080e7          	jalr	494(ra) # 5b1c <wait>
  exit(xstatus);
    2936:	fbc42503          	lw	a0,-68(s0)
    293a:	00003097          	auipc	ra,0x3
    293e:	1da080e7          	jalr	474(ra) # 5b14 <exit>

0000000000002942 <sbrkmuch>:
void sbrkmuch(char *s) {
    2942:	7179                	addi	sp,sp,-48
    2944:	f406                	sd	ra,40(sp)
    2946:	f022                	sd	s0,32(sp)
    2948:	ec26                	sd	s1,24(sp)
    294a:	e84a                	sd	s2,16(sp)
    294c:	e44e                	sd	s3,8(sp)
    294e:	e052                	sd	s4,0(sp)
    2950:	1800                	addi	s0,sp,48
    2952:	89aa                	mv	s3,a0
  oldbrk = sbrk(0);
    2954:	4501                	li	a0,0
    2956:	00003097          	auipc	ra,0x3
    295a:	246080e7          	jalr	582(ra) # 5b9c <sbrk>
    295e:	892a                	mv	s2,a0
  a = sbrk(0);
    2960:	4501                	li	a0,0
    2962:	00003097          	auipc	ra,0x3
    2966:	23a080e7          	jalr	570(ra) # 5b9c <sbrk>
    296a:	84aa                	mv	s1,a0
  p = sbrk(amt);
    296c:	06400537          	lui	a0,0x6400
    2970:	9d05                	subw	a0,a0,s1
    2972:	00003097          	auipc	ra,0x3
    2976:	22a080e7          	jalr	554(ra) # 5b9c <sbrk>
  if (p != a) {
    297a:	0ca49a63          	bne	s1,a0,2a4e <sbrkmuch+0x10c>
  char *eee = sbrk(0);
    297e:	4501                	li	a0,0
    2980:	00003097          	auipc	ra,0x3
    2984:	21c080e7          	jalr	540(ra) # 5b9c <sbrk>
    2988:	87aa                	mv	a5,a0
  for (char *pp = a; pp < eee; pp += 4096)
    298a:	00a4f963          	bgeu	s1,a0,299c <sbrkmuch+0x5a>
    *pp = 1;
    298e:	4685                	li	a3,1
  for (char *pp = a; pp < eee; pp += 4096)
    2990:	6705                	lui	a4,0x1
    *pp = 1;
    2992:	00d48023          	sb	a3,0(s1)
  for (char *pp = a; pp < eee; pp += 4096)
    2996:	94ba                	add	s1,s1,a4
    2998:	fef4ede3          	bltu	s1,a5,2992 <sbrkmuch+0x50>
  *lastaddr = 99;
    299c:	064007b7          	lui	a5,0x6400
    29a0:	06300713          	li	a4,99
    29a4:	fee78fa3          	sb	a4,-1(a5) # 63fffff <__BSS_END__+0x63efb97>
  a = sbrk(0);
    29a8:	4501                	li	a0,0
    29aa:	00003097          	auipc	ra,0x3
    29ae:	1f2080e7          	jalr	498(ra) # 5b9c <sbrk>
    29b2:	84aa                	mv	s1,a0
  c = sbrk(-PGSIZE);
    29b4:	757d                	lui	a0,0xfffff
    29b6:	00003097          	auipc	ra,0x3
    29ba:	1e6080e7          	jalr	486(ra) # 5b9c <sbrk>
  if (c == (char *)0xffffffffffffffffL) {
    29be:	57fd                	li	a5,-1
    29c0:	0af50563          	beq	a0,a5,2a6a <sbrkmuch+0x128>
  c = sbrk(0);
    29c4:	4501                	li	a0,0
    29c6:	00003097          	auipc	ra,0x3
    29ca:	1d6080e7          	jalr	470(ra) # 5b9c <sbrk>
  if (c != a - PGSIZE) {
    29ce:	80048793          	addi	a5,s1,-2048
    29d2:	80078793          	addi	a5,a5,-2048
    29d6:	0af51863          	bne	a0,a5,2a86 <sbrkmuch+0x144>
  a = sbrk(0);
    29da:	4501                	li	a0,0
    29dc:	00003097          	auipc	ra,0x3
    29e0:	1c0080e7          	jalr	448(ra) # 5b9c <sbrk>
    29e4:	84aa                	mv	s1,a0
  c = sbrk(PGSIZE);
    29e6:	6505                	lui	a0,0x1
    29e8:	00003097          	auipc	ra,0x3
    29ec:	1b4080e7          	jalr	436(ra) # 5b9c <sbrk>
    29f0:	8a2a                	mv	s4,a0
  if (c != a || sbrk(0) != a + PGSIZE) {
    29f2:	0aa49a63          	bne	s1,a0,2aa6 <sbrkmuch+0x164>
    29f6:	4501                	li	a0,0
    29f8:	00003097          	auipc	ra,0x3
    29fc:	1a4080e7          	jalr	420(ra) # 5b9c <sbrk>
    2a00:	6785                	lui	a5,0x1
    2a02:	97a6                	add	a5,a5,s1
    2a04:	0af51163          	bne	a0,a5,2aa6 <sbrkmuch+0x164>
  if (*lastaddr == 99) {
    2a08:	064007b7          	lui	a5,0x6400
    2a0c:	fff7c703          	lbu	a4,-1(a5) # 63fffff <__BSS_END__+0x63efb97>
    2a10:	06300793          	li	a5,99
    2a14:	0af70963          	beq	a4,a5,2ac6 <sbrkmuch+0x184>
  a = sbrk(0);
    2a18:	4501                	li	a0,0
    2a1a:	00003097          	auipc	ra,0x3
    2a1e:	182080e7          	jalr	386(ra) # 5b9c <sbrk>
    2a22:	84aa                	mv	s1,a0
  c = sbrk(-(sbrk(0) - oldbrk));
    2a24:	4501                	li	a0,0
    2a26:	00003097          	auipc	ra,0x3
    2a2a:	176080e7          	jalr	374(ra) # 5b9c <sbrk>
    2a2e:	40a9053b          	subw	a0,s2,a0
    2a32:	00003097          	auipc	ra,0x3
    2a36:	16a080e7          	jalr	362(ra) # 5b9c <sbrk>
  if (c != a) {
    2a3a:	0aa49463          	bne	s1,a0,2ae2 <sbrkmuch+0x1a0>
}
    2a3e:	70a2                	ld	ra,40(sp)
    2a40:	7402                	ld	s0,32(sp)
    2a42:	64e2                	ld	s1,24(sp)
    2a44:	6942                	ld	s2,16(sp)
    2a46:	69a2                	ld	s3,8(sp)
    2a48:	6a02                	ld	s4,0(sp)
    2a4a:	6145                	addi	sp,sp,48
    2a4c:	8082                	ret
    printf("%s: sbrk test failed to grow big address space; enough phys mem?\n",
    2a4e:	85ce                	mv	a1,s3
    2a50:	00004517          	auipc	a0,0x4
    2a54:	44850513          	addi	a0,a0,1096 # 6e98 <malloc+0xf5a>
    2a58:	00003097          	auipc	ra,0x3
    2a5c:	42a080e7          	jalr	1066(ra) # 5e82 <printf>
    exit(1);
    2a60:	4505                	li	a0,1
    2a62:	00003097          	auipc	ra,0x3
    2a66:	0b2080e7          	jalr	178(ra) # 5b14 <exit>
    printf("%s: sbrk could not deallocate\n", s);
    2a6a:	85ce                	mv	a1,s3
    2a6c:	00004517          	auipc	a0,0x4
    2a70:	47450513          	addi	a0,a0,1140 # 6ee0 <malloc+0xfa2>
    2a74:	00003097          	auipc	ra,0x3
    2a78:	40e080e7          	jalr	1038(ra) # 5e82 <printf>
    exit(1);
    2a7c:	4505                	li	a0,1
    2a7e:	00003097          	auipc	ra,0x3
    2a82:	096080e7          	jalr	150(ra) # 5b14 <exit>
    printf("%s: sbrk deallocation produced wrong address, a %x c %x\n", s, a,
    2a86:	86aa                	mv	a3,a0
    2a88:	8626                	mv	a2,s1
    2a8a:	85ce                	mv	a1,s3
    2a8c:	00004517          	auipc	a0,0x4
    2a90:	47450513          	addi	a0,a0,1140 # 6f00 <malloc+0xfc2>
    2a94:	00003097          	auipc	ra,0x3
    2a98:	3ee080e7          	jalr	1006(ra) # 5e82 <printf>
    exit(1);
    2a9c:	4505                	li	a0,1
    2a9e:	00003097          	auipc	ra,0x3
    2aa2:	076080e7          	jalr	118(ra) # 5b14 <exit>
    printf("%s: sbrk re-allocation failed, a %x c %x\n", s, a, c);
    2aa6:	86d2                	mv	a3,s4
    2aa8:	8626                	mv	a2,s1
    2aaa:	85ce                	mv	a1,s3
    2aac:	00004517          	auipc	a0,0x4
    2ab0:	49450513          	addi	a0,a0,1172 # 6f40 <malloc+0x1002>
    2ab4:	00003097          	auipc	ra,0x3
    2ab8:	3ce080e7          	jalr	974(ra) # 5e82 <printf>
    exit(1);
    2abc:	4505                	li	a0,1
    2abe:	00003097          	auipc	ra,0x3
    2ac2:	056080e7          	jalr	86(ra) # 5b14 <exit>
    printf("%s: sbrk de-allocation didn't really deallocate\n", s);
    2ac6:	85ce                	mv	a1,s3
    2ac8:	00004517          	auipc	a0,0x4
    2acc:	4a850513          	addi	a0,a0,1192 # 6f70 <malloc+0x1032>
    2ad0:	00003097          	auipc	ra,0x3
    2ad4:	3b2080e7          	jalr	946(ra) # 5e82 <printf>
    exit(1);
    2ad8:	4505                	li	a0,1
    2ada:	00003097          	auipc	ra,0x3
    2ade:	03a080e7          	jalr	58(ra) # 5b14 <exit>
    printf("%s: sbrk downsize failed, a %x c %x\n", s, a, c);
    2ae2:	86aa                	mv	a3,a0
    2ae4:	8626                	mv	a2,s1
    2ae6:	85ce                	mv	a1,s3
    2ae8:	00004517          	auipc	a0,0x4
    2aec:	4c050513          	addi	a0,a0,1216 # 6fa8 <malloc+0x106a>
    2af0:	00003097          	auipc	ra,0x3
    2af4:	392080e7          	jalr	914(ra) # 5e82 <printf>
    exit(1);
    2af8:	4505                	li	a0,1
    2afa:	00003097          	auipc	ra,0x3
    2afe:	01a080e7          	jalr	26(ra) # 5b14 <exit>

0000000000002b02 <sbrkarg>:
void sbrkarg(char *s) {
    2b02:	7179                	addi	sp,sp,-48
    2b04:	f406                	sd	ra,40(sp)
    2b06:	f022                	sd	s0,32(sp)
    2b08:	ec26                	sd	s1,24(sp)
    2b0a:	e84a                	sd	s2,16(sp)
    2b0c:	e44e                	sd	s3,8(sp)
    2b0e:	1800                	addi	s0,sp,48
    2b10:	89aa                	mv	s3,a0
  a = sbrk(PGSIZE);
    2b12:	6505                	lui	a0,0x1
    2b14:	00003097          	auipc	ra,0x3
    2b18:	088080e7          	jalr	136(ra) # 5b9c <sbrk>
    2b1c:	892a                	mv	s2,a0
  fd = open("sbrk", O_CREATE | O_WRONLY);
    2b1e:	20100593          	li	a1,513
    2b22:	00004517          	auipc	a0,0x4
    2b26:	4ae50513          	addi	a0,a0,1198 # 6fd0 <malloc+0x1092>
    2b2a:	00003097          	auipc	ra,0x3
    2b2e:	02a080e7          	jalr	42(ra) # 5b54 <open>
    2b32:	84aa                	mv	s1,a0
  unlink("sbrk");
    2b34:	00004517          	auipc	a0,0x4
    2b38:	49c50513          	addi	a0,a0,1180 # 6fd0 <malloc+0x1092>
    2b3c:	00003097          	auipc	ra,0x3
    2b40:	028080e7          	jalr	40(ra) # 5b64 <unlink>
  if (fd < 0) {
    2b44:	0404c163          	bltz	s1,2b86 <sbrkarg+0x84>
  if ((n = write(fd, a, PGSIZE)) < 0) {
    2b48:	6605                	lui	a2,0x1
    2b4a:	85ca                	mv	a1,s2
    2b4c:	8526                	mv	a0,s1
    2b4e:	00003097          	auipc	ra,0x3
    2b52:	fe6080e7          	jalr	-26(ra) # 5b34 <write>
    2b56:	04054663          	bltz	a0,2ba2 <sbrkarg+0xa0>
  close(fd);
    2b5a:	8526                	mv	a0,s1
    2b5c:	00003097          	auipc	ra,0x3
    2b60:	fe0080e7          	jalr	-32(ra) # 5b3c <close>
  a = sbrk(PGSIZE);
    2b64:	6505                	lui	a0,0x1
    2b66:	00003097          	auipc	ra,0x3
    2b6a:	036080e7          	jalr	54(ra) # 5b9c <sbrk>
  if (pipe((int *)a) != 0) {
    2b6e:	00003097          	auipc	ra,0x3
    2b72:	fb6080e7          	jalr	-74(ra) # 5b24 <pipe>
    2b76:	e521                	bnez	a0,2bbe <sbrkarg+0xbc>
}
    2b78:	70a2                	ld	ra,40(sp)
    2b7a:	7402                	ld	s0,32(sp)
    2b7c:	64e2                	ld	s1,24(sp)
    2b7e:	6942                	ld	s2,16(sp)
    2b80:	69a2                	ld	s3,8(sp)
    2b82:	6145                	addi	sp,sp,48
    2b84:	8082                	ret
    printf("%s: open sbrk failed\n", s);
    2b86:	85ce                	mv	a1,s3
    2b88:	00004517          	auipc	a0,0x4
    2b8c:	45050513          	addi	a0,a0,1104 # 6fd8 <malloc+0x109a>
    2b90:	00003097          	auipc	ra,0x3
    2b94:	2f2080e7          	jalr	754(ra) # 5e82 <printf>
    exit(1);
    2b98:	4505                	li	a0,1
    2b9a:	00003097          	auipc	ra,0x3
    2b9e:	f7a080e7          	jalr	-134(ra) # 5b14 <exit>
    printf("%s: write sbrk failed\n", s);
    2ba2:	85ce                	mv	a1,s3
    2ba4:	00004517          	auipc	a0,0x4
    2ba8:	44c50513          	addi	a0,a0,1100 # 6ff0 <malloc+0x10b2>
    2bac:	00003097          	auipc	ra,0x3
    2bb0:	2d6080e7          	jalr	726(ra) # 5e82 <printf>
    exit(1);
    2bb4:	4505                	li	a0,1
    2bb6:	00003097          	auipc	ra,0x3
    2bba:	f5e080e7          	jalr	-162(ra) # 5b14 <exit>
    printf("%s: pipe() failed\n", s);
    2bbe:	85ce                	mv	a1,s3
    2bc0:	00004517          	auipc	a0,0x4
    2bc4:	e1050513          	addi	a0,a0,-496 # 69d0 <malloc+0xa92>
    2bc8:	00003097          	auipc	ra,0x3
    2bcc:	2ba080e7          	jalr	698(ra) # 5e82 <printf>
    exit(1);
    2bd0:	4505                	li	a0,1
    2bd2:	00003097          	auipc	ra,0x3
    2bd6:	f42080e7          	jalr	-190(ra) # 5b14 <exit>

0000000000002bda <argptest>:
void argptest(char *s) {
    2bda:	1101                	addi	sp,sp,-32
    2bdc:	ec06                	sd	ra,24(sp)
    2bde:	e822                	sd	s0,16(sp)
    2be0:	e426                	sd	s1,8(sp)
    2be2:	e04a                	sd	s2,0(sp)
    2be4:	1000                	addi	s0,sp,32
    2be6:	892a                	mv	s2,a0
  fd = open("init", O_RDONLY);
    2be8:	4581                	li	a1,0
    2bea:	00004517          	auipc	a0,0x4
    2bee:	41e50513          	addi	a0,a0,1054 # 7008 <malloc+0x10ca>
    2bf2:	00003097          	auipc	ra,0x3
    2bf6:	f62080e7          	jalr	-158(ra) # 5b54 <open>
  if (fd < 0) {
    2bfa:	02054b63          	bltz	a0,2c30 <argptest+0x56>
    2bfe:	84aa                	mv	s1,a0
  read(fd, sbrk(0) - 1, -1);
    2c00:	4501                	li	a0,0
    2c02:	00003097          	auipc	ra,0x3
    2c06:	f9a080e7          	jalr	-102(ra) # 5b9c <sbrk>
    2c0a:	567d                	li	a2,-1
    2c0c:	00c505b3          	add	a1,a0,a2
    2c10:	8526                	mv	a0,s1
    2c12:	00003097          	auipc	ra,0x3
    2c16:	f1a080e7          	jalr	-230(ra) # 5b2c <read>
  close(fd);
    2c1a:	8526                	mv	a0,s1
    2c1c:	00003097          	auipc	ra,0x3
    2c20:	f20080e7          	jalr	-224(ra) # 5b3c <close>
}
    2c24:	60e2                	ld	ra,24(sp)
    2c26:	6442                	ld	s0,16(sp)
    2c28:	64a2                	ld	s1,8(sp)
    2c2a:	6902                	ld	s2,0(sp)
    2c2c:	6105                	addi	sp,sp,32
    2c2e:	8082                	ret
    printf("%s: open failed\n", s);
    2c30:	85ca                	mv	a1,s2
    2c32:	00004517          	auipc	a0,0x4
    2c36:	cae50513          	addi	a0,a0,-850 # 68e0 <malloc+0x9a2>
    2c3a:	00003097          	auipc	ra,0x3
    2c3e:	248080e7          	jalr	584(ra) # 5e82 <printf>
    exit(1);
    2c42:	4505                	li	a0,1
    2c44:	00003097          	auipc	ra,0x3
    2c48:	ed0080e7          	jalr	-304(ra) # 5b14 <exit>

0000000000002c4c <sbrkbugs>:
void sbrkbugs(char *s) {
    2c4c:	1141                	addi	sp,sp,-16
    2c4e:	e406                	sd	ra,8(sp)
    2c50:	e022                	sd	s0,0(sp)
    2c52:	0800                	addi	s0,sp,16
  int pid = fork();
    2c54:	00003097          	auipc	ra,0x3
    2c58:	eb8080e7          	jalr	-328(ra) # 5b0c <fork>
  if (pid < 0) {
    2c5c:	02054263          	bltz	a0,2c80 <sbrkbugs+0x34>
  if (pid == 0) {
    2c60:	ed0d                	bnez	a0,2c9a <sbrkbugs+0x4e>
    int sz = (uint64)sbrk(0);
    2c62:	00003097          	auipc	ra,0x3
    2c66:	f3a080e7          	jalr	-198(ra) # 5b9c <sbrk>
    sbrk(-sz);
    2c6a:	40a0053b          	negw	a0,a0
    2c6e:	00003097          	auipc	ra,0x3
    2c72:	f2e080e7          	jalr	-210(ra) # 5b9c <sbrk>
    exit(0);
    2c76:	4501                	li	a0,0
    2c78:	00003097          	auipc	ra,0x3
    2c7c:	e9c080e7          	jalr	-356(ra) # 5b14 <exit>
    printf("fork failed\n");
    2c80:	00004517          	auipc	a0,0x4
    2c84:	06850513          	addi	a0,a0,104 # 6ce8 <malloc+0xdaa>
    2c88:	00003097          	auipc	ra,0x3
    2c8c:	1fa080e7          	jalr	506(ra) # 5e82 <printf>
    exit(1);
    2c90:	4505                	li	a0,1
    2c92:	00003097          	auipc	ra,0x3
    2c96:	e82080e7          	jalr	-382(ra) # 5b14 <exit>
  wait(0);
    2c9a:	4501                	li	a0,0
    2c9c:	00003097          	auipc	ra,0x3
    2ca0:	e80080e7          	jalr	-384(ra) # 5b1c <wait>
  pid = fork();
    2ca4:	00003097          	auipc	ra,0x3
    2ca8:	e68080e7          	jalr	-408(ra) # 5b0c <fork>
  if (pid < 0) {
    2cac:	02054563          	bltz	a0,2cd6 <sbrkbugs+0x8a>
  if (pid == 0) {
    2cb0:	e121                	bnez	a0,2cf0 <sbrkbugs+0xa4>
    int sz = (uint64)sbrk(0);
    2cb2:	00003097          	auipc	ra,0x3
    2cb6:	eea080e7          	jalr	-278(ra) # 5b9c <sbrk>
    sbrk(-(sz - 3500));
    2cba:	6785                	lui	a5,0x1
    2cbc:	dac7879b          	addiw	a5,a5,-596 # dac <linktest+0x4c>
    2cc0:	40a7853b          	subw	a0,a5,a0
    2cc4:	00003097          	auipc	ra,0x3
    2cc8:	ed8080e7          	jalr	-296(ra) # 5b9c <sbrk>
    exit(0);
    2ccc:	4501                	li	a0,0
    2cce:	00003097          	auipc	ra,0x3
    2cd2:	e46080e7          	jalr	-442(ra) # 5b14 <exit>
    printf("fork failed\n");
    2cd6:	00004517          	auipc	a0,0x4
    2cda:	01250513          	addi	a0,a0,18 # 6ce8 <malloc+0xdaa>
    2cde:	00003097          	auipc	ra,0x3
    2ce2:	1a4080e7          	jalr	420(ra) # 5e82 <printf>
    exit(1);
    2ce6:	4505                	li	a0,1
    2ce8:	00003097          	auipc	ra,0x3
    2cec:	e2c080e7          	jalr	-468(ra) # 5b14 <exit>
  wait(0);
    2cf0:	4501                	li	a0,0
    2cf2:	00003097          	auipc	ra,0x3
    2cf6:	e2a080e7          	jalr	-470(ra) # 5b1c <wait>
  pid = fork();
    2cfa:	00003097          	auipc	ra,0x3
    2cfe:	e12080e7          	jalr	-494(ra) # 5b0c <fork>
  if (pid < 0) {
    2d02:	02054a63          	bltz	a0,2d36 <sbrkbugs+0xea>
  if (pid == 0) {
    2d06:	e529                	bnez	a0,2d50 <sbrkbugs+0x104>
    sbrk((10 * 4096 + 2048) - (uint64)sbrk(0));
    2d08:	00003097          	auipc	ra,0x3
    2d0c:	e94080e7          	jalr	-364(ra) # 5b9c <sbrk>
    2d10:	67ad                	lui	a5,0xb
    2d12:	8007879b          	addiw	a5,a5,-2048 # a800 <__global_pointer$+0x3cc>
    2d16:	40a7853b          	subw	a0,a5,a0
    2d1a:	00003097          	auipc	ra,0x3
    2d1e:	e82080e7          	jalr	-382(ra) # 5b9c <sbrk>
    sbrk(-10);
    2d22:	5559                	li	a0,-10
    2d24:	00003097          	auipc	ra,0x3
    2d28:	e78080e7          	jalr	-392(ra) # 5b9c <sbrk>
    exit(0);
    2d2c:	4501                	li	a0,0
    2d2e:	00003097          	auipc	ra,0x3
    2d32:	de6080e7          	jalr	-538(ra) # 5b14 <exit>
    printf("fork failed\n");
    2d36:	00004517          	auipc	a0,0x4
    2d3a:	fb250513          	addi	a0,a0,-78 # 6ce8 <malloc+0xdaa>
    2d3e:	00003097          	auipc	ra,0x3
    2d42:	144080e7          	jalr	324(ra) # 5e82 <printf>
    exit(1);
    2d46:	4505                	li	a0,1
    2d48:	00003097          	auipc	ra,0x3
    2d4c:	dcc080e7          	jalr	-564(ra) # 5b14 <exit>
  wait(0);
    2d50:	4501                	li	a0,0
    2d52:	00003097          	auipc	ra,0x3
    2d56:	dca080e7          	jalr	-566(ra) # 5b1c <wait>
  exit(0);
    2d5a:	4501                	li	a0,0
    2d5c:	00003097          	auipc	ra,0x3
    2d60:	db8080e7          	jalr	-584(ra) # 5b14 <exit>

0000000000002d64 <sbrklast>:
void sbrklast(char *s) {
    2d64:	7179                	addi	sp,sp,-48
    2d66:	f406                	sd	ra,40(sp)
    2d68:	f022                	sd	s0,32(sp)
    2d6a:	ec26                	sd	s1,24(sp)
    2d6c:	e84a                	sd	s2,16(sp)
    2d6e:	e44e                	sd	s3,8(sp)
    2d70:	e052                	sd	s4,0(sp)
    2d72:	1800                	addi	s0,sp,48
  uint64 top = (uint64)sbrk(0);
    2d74:	4501                	li	a0,0
    2d76:	00003097          	auipc	ra,0x3
    2d7a:	e26080e7          	jalr	-474(ra) # 5b9c <sbrk>
  if ((top % 4096) != 0)
    2d7e:	03451793          	slli	a5,a0,0x34
    2d82:	ebd9                	bnez	a5,2e18 <sbrklast+0xb4>
  sbrk(4096);
    2d84:	6505                	lui	a0,0x1
    2d86:	00003097          	auipc	ra,0x3
    2d8a:	e16080e7          	jalr	-490(ra) # 5b9c <sbrk>
  sbrk(10);
    2d8e:	4529                	li	a0,10
    2d90:	00003097          	auipc	ra,0x3
    2d94:	e0c080e7          	jalr	-500(ra) # 5b9c <sbrk>
  sbrk(-20);
    2d98:	5531                	li	a0,-20
    2d9a:	00003097          	auipc	ra,0x3
    2d9e:	e02080e7          	jalr	-510(ra) # 5b9c <sbrk>
  top = (uint64)sbrk(0);
    2da2:	4501                	li	a0,0
    2da4:	00003097          	auipc	ra,0x3
    2da8:	df8080e7          	jalr	-520(ra) # 5b9c <sbrk>
    2dac:	84aa                	mv	s1,a0
  char *p = (char *)(top - 64);
    2dae:	fc050913          	addi	s2,a0,-64 # fc0 <bigdir+0x14>
  p[0] = 'x';
    2db2:	07800993          	li	s3,120
    2db6:	fd350023          	sb	s3,-64(a0)
  p[1] = '\0';
    2dba:	fc0500a3          	sb	zero,-63(a0)
  int fd = open(p, O_RDWR | O_CREATE);
    2dbe:	20200593          	li	a1,514
    2dc2:	854a                	mv	a0,s2
    2dc4:	00003097          	auipc	ra,0x3
    2dc8:	d90080e7          	jalr	-624(ra) # 5b54 <open>
    2dcc:	8a2a                	mv	s4,a0
  write(fd, p, 1);
    2dce:	4605                	li	a2,1
    2dd0:	85ca                	mv	a1,s2
    2dd2:	00003097          	auipc	ra,0x3
    2dd6:	d62080e7          	jalr	-670(ra) # 5b34 <write>
  close(fd);
    2dda:	8552                	mv	a0,s4
    2ddc:	00003097          	auipc	ra,0x3
    2de0:	d60080e7          	jalr	-672(ra) # 5b3c <close>
  fd = open(p, O_RDWR);
    2de4:	4589                	li	a1,2
    2de6:	854a                	mv	a0,s2
    2de8:	00003097          	auipc	ra,0x3
    2dec:	d6c080e7          	jalr	-660(ra) # 5b54 <open>
  p[0] = '\0';
    2df0:	fc048023          	sb	zero,-64(s1)
  read(fd, p, 1);
    2df4:	4605                	li	a2,1
    2df6:	85ca                	mv	a1,s2
    2df8:	00003097          	auipc	ra,0x3
    2dfc:	d34080e7          	jalr	-716(ra) # 5b2c <read>
  if (p[0] != 'x')
    2e00:	fc04c783          	lbu	a5,-64(s1)
    2e04:	03379463          	bne	a5,s3,2e2c <sbrklast+0xc8>
}
    2e08:	70a2                	ld	ra,40(sp)
    2e0a:	7402                	ld	s0,32(sp)
    2e0c:	64e2                	ld	s1,24(sp)
    2e0e:	6942                	ld	s2,16(sp)
    2e10:	69a2                	ld	s3,8(sp)
    2e12:	6a02                	ld	s4,0(sp)
    2e14:	6145                	addi	sp,sp,48
    2e16:	8082                	ret
    sbrk(4096 - (top % 4096));
    2e18:	0347d513          	srli	a0,a5,0x34
    2e1c:	6785                	lui	a5,0x1
    2e1e:	40a7853b          	subw	a0,a5,a0
    2e22:	00003097          	auipc	ra,0x3
    2e26:	d7a080e7          	jalr	-646(ra) # 5b9c <sbrk>
    2e2a:	bfa9                	j	2d84 <sbrklast+0x20>
    exit(1);
    2e2c:	4505                	li	a0,1
    2e2e:	00003097          	auipc	ra,0x3
    2e32:	ce6080e7          	jalr	-794(ra) # 5b14 <exit>

0000000000002e36 <sbrk8000>:
void sbrk8000(char *s) {
    2e36:	1141                	addi	sp,sp,-16
    2e38:	e406                	sd	ra,8(sp)
    2e3a:	e022                	sd	s0,0(sp)
    2e3c:	0800                	addi	s0,sp,16
  sbrk(0x80000004);
    2e3e:	80000537          	lui	a0,0x80000
    2e42:	0511                	addi	a0,a0,4 # ffffffff80000004 <__BSS_END__+0xffffffff7ffefb9c>
    2e44:	00003097          	auipc	ra,0x3
    2e48:	d58080e7          	jalr	-680(ra) # 5b9c <sbrk>
  volatile char *top = sbrk(0);
    2e4c:	4501                	li	a0,0
    2e4e:	00003097          	auipc	ra,0x3
    2e52:	d4e080e7          	jalr	-690(ra) # 5b9c <sbrk>
  *(top - 1) = *(top - 1) + 1;
    2e56:	fff54783          	lbu	a5,-1(a0)
    2e5a:	0785                	addi	a5,a5,1 # 1001 <bigdir+0x55>
    2e5c:	0ff7f793          	zext.b	a5,a5
    2e60:	fef50fa3          	sb	a5,-1(a0)
}
    2e64:	60a2                	ld	ra,8(sp)
    2e66:	6402                	ld	s0,0(sp)
    2e68:	0141                	addi	sp,sp,16
    2e6a:	8082                	ret

0000000000002e6c <execout>:
}

// test the exec() code that cleans up if it runs out
// of memory. it's really a test that such a condition
// doesn't cause a panic.
void execout(char *s) {
    2e6c:	711d                	addi	sp,sp,-96
    2e6e:	ec86                	sd	ra,88(sp)
    2e70:	e8a2                	sd	s0,80(sp)
    2e72:	e4a6                	sd	s1,72(sp)
    2e74:	e0ca                	sd	s2,64(sp)
    2e76:	fc4e                	sd	s3,56(sp)
    2e78:	1080                	addi	s0,sp,96
  for (int avail = 0; avail < 15; avail++) {
    2e7a:	4901                	li	s2,0
    2e7c:	49bd                	li	s3,15
    int pid = fork();
    2e7e:	00003097          	auipc	ra,0x3
    2e82:	c8e080e7          	jalr	-882(ra) # 5b0c <fork>
    2e86:	84aa                	mv	s1,a0
    if (pid < 0) {
    2e88:	02054263          	bltz	a0,2eac <execout+0x40>
      printf("fork failed\n");
      exit(1);
    } else if (pid == 0) {
    2e8c:	cd1d                	beqz	a0,2eca <execout+0x5e>
      close(1);
      char *args[] = {"echo", "x", 0};
      exec("echo", args);
      exit(0);
    } else {
      wait((int *)0);
    2e8e:	4501                	li	a0,0
    2e90:	00003097          	auipc	ra,0x3
    2e94:	c8c080e7          	jalr	-884(ra) # 5b1c <wait>
  for (int avail = 0; avail < 15; avail++) {
    2e98:	2905                	addiw	s2,s2,1
    2e9a:	ff3912e3          	bne	s2,s3,2e7e <execout+0x12>
    2e9e:	f852                	sd	s4,48(sp)
    2ea0:	f456                	sd	s5,40(sp)
    }
  }

  exit(0);
    2ea2:	4501                	li	a0,0
    2ea4:	00003097          	auipc	ra,0x3
    2ea8:	c70080e7          	jalr	-912(ra) # 5b14 <exit>
    2eac:	f852                	sd	s4,48(sp)
    2eae:	f456                	sd	s5,40(sp)
      printf("fork failed\n");
    2eb0:	00004517          	auipc	a0,0x4
    2eb4:	e3850513          	addi	a0,a0,-456 # 6ce8 <malloc+0xdaa>
    2eb8:	00003097          	auipc	ra,0x3
    2ebc:	fca080e7          	jalr	-54(ra) # 5e82 <printf>
      exit(1);
    2ec0:	4505                	li	a0,1
    2ec2:	00003097          	auipc	ra,0x3
    2ec6:	c52080e7          	jalr	-942(ra) # 5b14 <exit>
    2eca:	f852                	sd	s4,48(sp)
    2ecc:	f456                	sd	s5,40(sp)
        uint64 a = (uint64)sbrk(4096);
    2ece:	6985                	lui	s3,0x1
        if (a == 0xffffffffffffffffLL)
    2ed0:	5a7d                	li	s4,-1
        *(char *)(a + 4096 - 1) = 1;
    2ed2:	4a85                	li	s5,1
        uint64 a = (uint64)sbrk(4096);
    2ed4:	854e                	mv	a0,s3
    2ed6:	00003097          	auipc	ra,0x3
    2eda:	cc6080e7          	jalr	-826(ra) # 5b9c <sbrk>
        if (a == 0xffffffffffffffffLL)
    2ede:	01450663          	beq	a0,s4,2eea <execout+0x7e>
        *(char *)(a + 4096 - 1) = 1;
    2ee2:	954e                	add	a0,a0,s3
    2ee4:	ff550fa3          	sb	s5,-1(a0)
      while (1) {
    2ee8:	b7f5                	j	2ed4 <execout+0x68>
        sbrk(-4096);
    2eea:	79fd                	lui	s3,0xfffff
      for (int i = 0; i < avail; i++)
    2eec:	01205a63          	blez	s2,2f00 <execout+0x94>
        sbrk(-4096);
    2ef0:	854e                	mv	a0,s3
    2ef2:	00003097          	auipc	ra,0x3
    2ef6:	caa080e7          	jalr	-854(ra) # 5b9c <sbrk>
      for (int i = 0; i < avail; i++)
    2efa:	2485                	addiw	s1,s1,1
    2efc:	ff249ae3          	bne	s1,s2,2ef0 <execout+0x84>
      close(1);
    2f00:	4505                	li	a0,1
    2f02:	00003097          	auipc	ra,0x3
    2f06:	c3a080e7          	jalr	-966(ra) # 5b3c <close>
      char *args[] = {"echo", "x", 0};
    2f0a:	00003797          	auipc	a5,0x3
    2f0e:	16678793          	addi	a5,a5,358 # 6070 <malloc+0x132>
    2f12:	faf43423          	sd	a5,-88(s0)
    2f16:	00003797          	auipc	a5,0x3
    2f1a:	1ca78793          	addi	a5,a5,458 # 60e0 <malloc+0x1a2>
    2f1e:	faf43823          	sd	a5,-80(s0)
    2f22:	fa043c23          	sd	zero,-72(s0)
      exec("echo", args);
    2f26:	fa840593          	addi	a1,s0,-88
    2f2a:	00003517          	auipc	a0,0x3
    2f2e:	14650513          	addi	a0,a0,326 # 6070 <malloc+0x132>
    2f32:	00003097          	auipc	ra,0x3
    2f36:	c1a080e7          	jalr	-998(ra) # 5b4c <exec>
      exit(0);
    2f3a:	4501                	li	a0,0
    2f3c:	00003097          	auipc	ra,0x3
    2f40:	bd8080e7          	jalr	-1064(ra) # 5b14 <exit>

0000000000002f44 <fourteen>:
void fourteen(char *s) {
    2f44:	1101                	addi	sp,sp,-32
    2f46:	ec06                	sd	ra,24(sp)
    2f48:	e822                	sd	s0,16(sp)
    2f4a:	e426                	sd	s1,8(sp)
    2f4c:	1000                	addi	s0,sp,32
    2f4e:	84aa                	mv	s1,a0
  if (mkdir("12345678901234") != 0) {
    2f50:	00004517          	auipc	a0,0x4
    2f54:	29050513          	addi	a0,a0,656 # 71e0 <malloc+0x12a2>
    2f58:	00003097          	auipc	ra,0x3
    2f5c:	c24080e7          	jalr	-988(ra) # 5b7c <mkdir>
    2f60:	e165                	bnez	a0,3040 <fourteen+0xfc>
  if (mkdir("12345678901234/123456789012345") != 0) {
    2f62:	00004517          	auipc	a0,0x4
    2f66:	0d650513          	addi	a0,a0,214 # 7038 <malloc+0x10fa>
    2f6a:	00003097          	auipc	ra,0x3
    2f6e:	c12080e7          	jalr	-1006(ra) # 5b7c <mkdir>
    2f72:	e56d                	bnez	a0,305c <fourteen+0x118>
  fd = open("123456789012345/123456789012345/123456789012345", O_CREATE);
    2f74:	20000593          	li	a1,512
    2f78:	00004517          	auipc	a0,0x4
    2f7c:	11850513          	addi	a0,a0,280 # 7090 <malloc+0x1152>
    2f80:	00003097          	auipc	ra,0x3
    2f84:	bd4080e7          	jalr	-1068(ra) # 5b54 <open>
  if (fd < 0) {
    2f88:	0e054863          	bltz	a0,3078 <fourteen+0x134>
  close(fd);
    2f8c:	00003097          	auipc	ra,0x3
    2f90:	bb0080e7          	jalr	-1104(ra) # 5b3c <close>
  fd = open("12345678901234/12345678901234/12345678901234", 0);
    2f94:	4581                	li	a1,0
    2f96:	00004517          	auipc	a0,0x4
    2f9a:	17250513          	addi	a0,a0,370 # 7108 <malloc+0x11ca>
    2f9e:	00003097          	auipc	ra,0x3
    2fa2:	bb6080e7          	jalr	-1098(ra) # 5b54 <open>
  if (fd < 0) {
    2fa6:	0e054763          	bltz	a0,3094 <fourteen+0x150>
  close(fd);
    2faa:	00003097          	auipc	ra,0x3
    2fae:	b92080e7          	jalr	-1134(ra) # 5b3c <close>
  if (mkdir("12345678901234/12345678901234") == 0) {
    2fb2:	00004517          	auipc	a0,0x4
    2fb6:	1c650513          	addi	a0,a0,454 # 7178 <malloc+0x123a>
    2fba:	00003097          	auipc	ra,0x3
    2fbe:	bc2080e7          	jalr	-1086(ra) # 5b7c <mkdir>
    2fc2:	c57d                	beqz	a0,30b0 <fourteen+0x16c>
  if (mkdir("123456789012345/12345678901234") == 0) {
    2fc4:	00004517          	auipc	a0,0x4
    2fc8:	20c50513          	addi	a0,a0,524 # 71d0 <malloc+0x1292>
    2fcc:	00003097          	auipc	ra,0x3
    2fd0:	bb0080e7          	jalr	-1104(ra) # 5b7c <mkdir>
    2fd4:	cd65                	beqz	a0,30cc <fourteen+0x188>
  unlink("123456789012345/12345678901234");
    2fd6:	00004517          	auipc	a0,0x4
    2fda:	1fa50513          	addi	a0,a0,506 # 71d0 <malloc+0x1292>
    2fde:	00003097          	auipc	ra,0x3
    2fe2:	b86080e7          	jalr	-1146(ra) # 5b64 <unlink>
  unlink("12345678901234/12345678901234");
    2fe6:	00004517          	auipc	a0,0x4
    2fea:	19250513          	addi	a0,a0,402 # 7178 <malloc+0x123a>
    2fee:	00003097          	auipc	ra,0x3
    2ff2:	b76080e7          	jalr	-1162(ra) # 5b64 <unlink>
  unlink("12345678901234/12345678901234/12345678901234");
    2ff6:	00004517          	auipc	a0,0x4
    2ffa:	11250513          	addi	a0,a0,274 # 7108 <malloc+0x11ca>
    2ffe:	00003097          	auipc	ra,0x3
    3002:	b66080e7          	jalr	-1178(ra) # 5b64 <unlink>
  unlink("123456789012345/123456789012345/123456789012345");
    3006:	00004517          	auipc	a0,0x4
    300a:	08a50513          	addi	a0,a0,138 # 7090 <malloc+0x1152>
    300e:	00003097          	auipc	ra,0x3
    3012:	b56080e7          	jalr	-1194(ra) # 5b64 <unlink>
  unlink("12345678901234/123456789012345");
    3016:	00004517          	auipc	a0,0x4
    301a:	02250513          	addi	a0,a0,34 # 7038 <malloc+0x10fa>
    301e:	00003097          	auipc	ra,0x3
    3022:	b46080e7          	jalr	-1210(ra) # 5b64 <unlink>
  unlink("12345678901234");
    3026:	00004517          	auipc	a0,0x4
    302a:	1ba50513          	addi	a0,a0,442 # 71e0 <malloc+0x12a2>
    302e:	00003097          	auipc	ra,0x3
    3032:	b36080e7          	jalr	-1226(ra) # 5b64 <unlink>
}
    3036:	60e2                	ld	ra,24(sp)
    3038:	6442                	ld	s0,16(sp)
    303a:	64a2                	ld	s1,8(sp)
    303c:	6105                	addi	sp,sp,32
    303e:	8082                	ret
    printf("%s: mkdir 12345678901234 failed\n", s);
    3040:	85a6                	mv	a1,s1
    3042:	00004517          	auipc	a0,0x4
    3046:	fce50513          	addi	a0,a0,-50 # 7010 <malloc+0x10d2>
    304a:	00003097          	auipc	ra,0x3
    304e:	e38080e7          	jalr	-456(ra) # 5e82 <printf>
    exit(1);
    3052:	4505                	li	a0,1
    3054:	00003097          	auipc	ra,0x3
    3058:	ac0080e7          	jalr	-1344(ra) # 5b14 <exit>
    printf("%s: mkdir 12345678901234/123456789012345 failed\n", s);
    305c:	85a6                	mv	a1,s1
    305e:	00004517          	auipc	a0,0x4
    3062:	ffa50513          	addi	a0,a0,-6 # 7058 <malloc+0x111a>
    3066:	00003097          	auipc	ra,0x3
    306a:	e1c080e7          	jalr	-484(ra) # 5e82 <printf>
    exit(1);
    306e:	4505                	li	a0,1
    3070:	00003097          	auipc	ra,0x3
    3074:	aa4080e7          	jalr	-1372(ra) # 5b14 <exit>
    printf(
    3078:	85a6                	mv	a1,s1
    307a:	00004517          	auipc	a0,0x4
    307e:	04650513          	addi	a0,a0,70 # 70c0 <malloc+0x1182>
    3082:	00003097          	auipc	ra,0x3
    3086:	e00080e7          	jalr	-512(ra) # 5e82 <printf>
    exit(1);
    308a:	4505                	li	a0,1
    308c:	00003097          	auipc	ra,0x3
    3090:	a88080e7          	jalr	-1400(ra) # 5b14 <exit>
    printf("%s: open 12345678901234/12345678901234/12345678901234 failed\n", s);
    3094:	85a6                	mv	a1,s1
    3096:	00004517          	auipc	a0,0x4
    309a:	0a250513          	addi	a0,a0,162 # 7138 <malloc+0x11fa>
    309e:	00003097          	auipc	ra,0x3
    30a2:	de4080e7          	jalr	-540(ra) # 5e82 <printf>
    exit(1);
    30a6:	4505                	li	a0,1
    30a8:	00003097          	auipc	ra,0x3
    30ac:	a6c080e7          	jalr	-1428(ra) # 5b14 <exit>
    printf("%s: mkdir 12345678901234/12345678901234 succeeded!\n", s);
    30b0:	85a6                	mv	a1,s1
    30b2:	00004517          	auipc	a0,0x4
    30b6:	0e650513          	addi	a0,a0,230 # 7198 <malloc+0x125a>
    30ba:	00003097          	auipc	ra,0x3
    30be:	dc8080e7          	jalr	-568(ra) # 5e82 <printf>
    exit(1);
    30c2:	4505                	li	a0,1
    30c4:	00003097          	auipc	ra,0x3
    30c8:	a50080e7          	jalr	-1456(ra) # 5b14 <exit>
    printf("%s: mkdir 12345678901234/123456789012345 succeeded!\n", s);
    30cc:	85a6                	mv	a1,s1
    30ce:	00004517          	auipc	a0,0x4
    30d2:	12250513          	addi	a0,a0,290 # 71f0 <malloc+0x12b2>
    30d6:	00003097          	auipc	ra,0x3
    30da:	dac080e7          	jalr	-596(ra) # 5e82 <printf>
    exit(1);
    30de:	4505                	li	a0,1
    30e0:	00003097          	auipc	ra,0x3
    30e4:	a34080e7          	jalr	-1484(ra) # 5b14 <exit>

00000000000030e8 <iputtest>:
void iputtest(char *s) {
    30e8:	1101                	addi	sp,sp,-32
    30ea:	ec06                	sd	ra,24(sp)
    30ec:	e822                	sd	s0,16(sp)
    30ee:	e426                	sd	s1,8(sp)
    30f0:	1000                	addi	s0,sp,32
    30f2:	84aa                	mv	s1,a0
  if (mkdir("iputdir") < 0) {
    30f4:	00004517          	auipc	a0,0x4
    30f8:	13450513          	addi	a0,a0,308 # 7228 <malloc+0x12ea>
    30fc:	00003097          	auipc	ra,0x3
    3100:	a80080e7          	jalr	-1408(ra) # 5b7c <mkdir>
    3104:	04054563          	bltz	a0,314e <iputtest+0x66>
  if (chdir("iputdir") < 0) {
    3108:	00004517          	auipc	a0,0x4
    310c:	12050513          	addi	a0,a0,288 # 7228 <malloc+0x12ea>
    3110:	00003097          	auipc	ra,0x3
    3114:	a74080e7          	jalr	-1420(ra) # 5b84 <chdir>
    3118:	04054963          	bltz	a0,316a <iputtest+0x82>
  if (unlink("../iputdir") < 0) {
    311c:	00004517          	auipc	a0,0x4
    3120:	14c50513          	addi	a0,a0,332 # 7268 <malloc+0x132a>
    3124:	00003097          	auipc	ra,0x3
    3128:	a40080e7          	jalr	-1472(ra) # 5b64 <unlink>
    312c:	04054d63          	bltz	a0,3186 <iputtest+0x9e>
  if (chdir("/") < 0) {
    3130:	00004517          	auipc	a0,0x4
    3134:	16850513          	addi	a0,a0,360 # 7298 <malloc+0x135a>
    3138:	00003097          	auipc	ra,0x3
    313c:	a4c080e7          	jalr	-1460(ra) # 5b84 <chdir>
    3140:	06054163          	bltz	a0,31a2 <iputtest+0xba>
}
    3144:	60e2                	ld	ra,24(sp)
    3146:	6442                	ld	s0,16(sp)
    3148:	64a2                	ld	s1,8(sp)
    314a:	6105                	addi	sp,sp,32
    314c:	8082                	ret
    printf("%s: mkdir failed\n", s);
    314e:	85a6                	mv	a1,s1
    3150:	00004517          	auipc	a0,0x4
    3154:	0e050513          	addi	a0,a0,224 # 7230 <malloc+0x12f2>
    3158:	00003097          	auipc	ra,0x3
    315c:	d2a080e7          	jalr	-726(ra) # 5e82 <printf>
    exit(1);
    3160:	4505                	li	a0,1
    3162:	00003097          	auipc	ra,0x3
    3166:	9b2080e7          	jalr	-1614(ra) # 5b14 <exit>
    printf("%s: chdir iputdir failed\n", s);
    316a:	85a6                	mv	a1,s1
    316c:	00004517          	auipc	a0,0x4
    3170:	0dc50513          	addi	a0,a0,220 # 7248 <malloc+0x130a>
    3174:	00003097          	auipc	ra,0x3
    3178:	d0e080e7          	jalr	-754(ra) # 5e82 <printf>
    exit(1);
    317c:	4505                	li	a0,1
    317e:	00003097          	auipc	ra,0x3
    3182:	996080e7          	jalr	-1642(ra) # 5b14 <exit>
    printf("%s: unlink ../iputdir failed\n", s);
    3186:	85a6                	mv	a1,s1
    3188:	00004517          	auipc	a0,0x4
    318c:	0f050513          	addi	a0,a0,240 # 7278 <malloc+0x133a>
    3190:	00003097          	auipc	ra,0x3
    3194:	cf2080e7          	jalr	-782(ra) # 5e82 <printf>
    exit(1);
    3198:	4505                	li	a0,1
    319a:	00003097          	auipc	ra,0x3
    319e:	97a080e7          	jalr	-1670(ra) # 5b14 <exit>
    printf("%s: chdir / failed\n", s);
    31a2:	85a6                	mv	a1,s1
    31a4:	00004517          	auipc	a0,0x4
    31a8:	0fc50513          	addi	a0,a0,252 # 72a0 <malloc+0x1362>
    31ac:	00003097          	auipc	ra,0x3
    31b0:	cd6080e7          	jalr	-810(ra) # 5e82 <printf>
    exit(1);
    31b4:	4505                	li	a0,1
    31b6:	00003097          	auipc	ra,0x3
    31ba:	95e080e7          	jalr	-1698(ra) # 5b14 <exit>

00000000000031be <exitiputtest>:
void exitiputtest(char *s) {
    31be:	7179                	addi	sp,sp,-48
    31c0:	f406                	sd	ra,40(sp)
    31c2:	f022                	sd	s0,32(sp)
    31c4:	ec26                	sd	s1,24(sp)
    31c6:	1800                	addi	s0,sp,48
    31c8:	84aa                	mv	s1,a0
  pid = fork();
    31ca:	00003097          	auipc	ra,0x3
    31ce:	942080e7          	jalr	-1726(ra) # 5b0c <fork>
  if (pid < 0) {
    31d2:	04054663          	bltz	a0,321e <exitiputtest+0x60>
  if (pid == 0) {
    31d6:	ed45                	bnez	a0,328e <exitiputtest+0xd0>
    if (mkdir("iputdir") < 0) {
    31d8:	00004517          	auipc	a0,0x4
    31dc:	05050513          	addi	a0,a0,80 # 7228 <malloc+0x12ea>
    31e0:	00003097          	auipc	ra,0x3
    31e4:	99c080e7          	jalr	-1636(ra) # 5b7c <mkdir>
    31e8:	04054963          	bltz	a0,323a <exitiputtest+0x7c>
    if (chdir("iputdir") < 0) {
    31ec:	00004517          	auipc	a0,0x4
    31f0:	03c50513          	addi	a0,a0,60 # 7228 <malloc+0x12ea>
    31f4:	00003097          	auipc	ra,0x3
    31f8:	990080e7          	jalr	-1648(ra) # 5b84 <chdir>
    31fc:	04054d63          	bltz	a0,3256 <exitiputtest+0x98>
    if (unlink("../iputdir") < 0) {
    3200:	00004517          	auipc	a0,0x4
    3204:	06850513          	addi	a0,a0,104 # 7268 <malloc+0x132a>
    3208:	00003097          	auipc	ra,0x3
    320c:	95c080e7          	jalr	-1700(ra) # 5b64 <unlink>
    3210:	06054163          	bltz	a0,3272 <exitiputtest+0xb4>
    exit(0);
    3214:	4501                	li	a0,0
    3216:	00003097          	auipc	ra,0x3
    321a:	8fe080e7          	jalr	-1794(ra) # 5b14 <exit>
    printf("%s: fork failed\n", s);
    321e:	85a6                	mv	a1,s1
    3220:	00003517          	auipc	a0,0x3
    3224:	6a850513          	addi	a0,a0,1704 # 68c8 <malloc+0x98a>
    3228:	00003097          	auipc	ra,0x3
    322c:	c5a080e7          	jalr	-934(ra) # 5e82 <printf>
    exit(1);
    3230:	4505                	li	a0,1
    3232:	00003097          	auipc	ra,0x3
    3236:	8e2080e7          	jalr	-1822(ra) # 5b14 <exit>
      printf("%s: mkdir failed\n", s);
    323a:	85a6                	mv	a1,s1
    323c:	00004517          	auipc	a0,0x4
    3240:	ff450513          	addi	a0,a0,-12 # 7230 <malloc+0x12f2>
    3244:	00003097          	auipc	ra,0x3
    3248:	c3e080e7          	jalr	-962(ra) # 5e82 <printf>
      exit(1);
    324c:	4505                	li	a0,1
    324e:	00003097          	auipc	ra,0x3
    3252:	8c6080e7          	jalr	-1850(ra) # 5b14 <exit>
      printf("%s: child chdir failed\n", s);
    3256:	85a6                	mv	a1,s1
    3258:	00004517          	auipc	a0,0x4
    325c:	06050513          	addi	a0,a0,96 # 72b8 <malloc+0x137a>
    3260:	00003097          	auipc	ra,0x3
    3264:	c22080e7          	jalr	-990(ra) # 5e82 <printf>
      exit(1);
    3268:	4505                	li	a0,1
    326a:	00003097          	auipc	ra,0x3
    326e:	8aa080e7          	jalr	-1878(ra) # 5b14 <exit>
      printf("%s: unlink ../iputdir failed\n", s);
    3272:	85a6                	mv	a1,s1
    3274:	00004517          	auipc	a0,0x4
    3278:	00450513          	addi	a0,a0,4 # 7278 <malloc+0x133a>
    327c:	00003097          	auipc	ra,0x3
    3280:	c06080e7          	jalr	-1018(ra) # 5e82 <printf>
      exit(1);
    3284:	4505                	li	a0,1
    3286:	00003097          	auipc	ra,0x3
    328a:	88e080e7          	jalr	-1906(ra) # 5b14 <exit>
  wait(&xstatus);
    328e:	fdc40513          	addi	a0,s0,-36
    3292:	00003097          	auipc	ra,0x3
    3296:	88a080e7          	jalr	-1910(ra) # 5b1c <wait>
  exit(xstatus);
    329a:	fdc42503          	lw	a0,-36(s0)
    329e:	00003097          	auipc	ra,0x3
    32a2:	876080e7          	jalr	-1930(ra) # 5b14 <exit>

00000000000032a6 <dirtest>:
void dirtest(char *s) {
    32a6:	1101                	addi	sp,sp,-32
    32a8:	ec06                	sd	ra,24(sp)
    32aa:	e822                	sd	s0,16(sp)
    32ac:	e426                	sd	s1,8(sp)
    32ae:	1000                	addi	s0,sp,32
    32b0:	84aa                	mv	s1,a0
  if (mkdir("dir0") < 0) {
    32b2:	00004517          	auipc	a0,0x4
    32b6:	01e50513          	addi	a0,a0,30 # 72d0 <malloc+0x1392>
    32ba:	00003097          	auipc	ra,0x3
    32be:	8c2080e7          	jalr	-1854(ra) # 5b7c <mkdir>
    32c2:	04054563          	bltz	a0,330c <dirtest+0x66>
  if (chdir("dir0") < 0) {
    32c6:	00004517          	auipc	a0,0x4
    32ca:	00a50513          	addi	a0,a0,10 # 72d0 <malloc+0x1392>
    32ce:	00003097          	auipc	ra,0x3
    32d2:	8b6080e7          	jalr	-1866(ra) # 5b84 <chdir>
    32d6:	04054963          	bltz	a0,3328 <dirtest+0x82>
  if (chdir("..") < 0) {
    32da:	00004517          	auipc	a0,0x4
    32de:	01650513          	addi	a0,a0,22 # 72f0 <malloc+0x13b2>
    32e2:	00003097          	auipc	ra,0x3
    32e6:	8a2080e7          	jalr	-1886(ra) # 5b84 <chdir>
    32ea:	04054d63          	bltz	a0,3344 <dirtest+0x9e>
  if (unlink("dir0") < 0) {
    32ee:	00004517          	auipc	a0,0x4
    32f2:	fe250513          	addi	a0,a0,-30 # 72d0 <malloc+0x1392>
    32f6:	00003097          	auipc	ra,0x3
    32fa:	86e080e7          	jalr	-1938(ra) # 5b64 <unlink>
    32fe:	06054163          	bltz	a0,3360 <dirtest+0xba>
}
    3302:	60e2                	ld	ra,24(sp)
    3304:	6442                	ld	s0,16(sp)
    3306:	64a2                	ld	s1,8(sp)
    3308:	6105                	addi	sp,sp,32
    330a:	8082                	ret
    printf("%s: mkdir failed\n", s);
    330c:	85a6                	mv	a1,s1
    330e:	00004517          	auipc	a0,0x4
    3312:	f2250513          	addi	a0,a0,-222 # 7230 <malloc+0x12f2>
    3316:	00003097          	auipc	ra,0x3
    331a:	b6c080e7          	jalr	-1172(ra) # 5e82 <printf>
    exit(1);
    331e:	4505                	li	a0,1
    3320:	00002097          	auipc	ra,0x2
    3324:	7f4080e7          	jalr	2036(ra) # 5b14 <exit>
    printf("%s: chdir dir0 failed\n", s);
    3328:	85a6                	mv	a1,s1
    332a:	00004517          	auipc	a0,0x4
    332e:	fae50513          	addi	a0,a0,-82 # 72d8 <malloc+0x139a>
    3332:	00003097          	auipc	ra,0x3
    3336:	b50080e7          	jalr	-1200(ra) # 5e82 <printf>
    exit(1);
    333a:	4505                	li	a0,1
    333c:	00002097          	auipc	ra,0x2
    3340:	7d8080e7          	jalr	2008(ra) # 5b14 <exit>
    printf("%s: chdir .. failed\n", s);
    3344:	85a6                	mv	a1,s1
    3346:	00004517          	auipc	a0,0x4
    334a:	fb250513          	addi	a0,a0,-78 # 72f8 <malloc+0x13ba>
    334e:	00003097          	auipc	ra,0x3
    3352:	b34080e7          	jalr	-1228(ra) # 5e82 <printf>
    exit(1);
    3356:	4505                	li	a0,1
    3358:	00002097          	auipc	ra,0x2
    335c:	7bc080e7          	jalr	1980(ra) # 5b14 <exit>
    printf("%s: unlink dir0 failed\n", s);
    3360:	85a6                	mv	a1,s1
    3362:	00004517          	auipc	a0,0x4
    3366:	fae50513          	addi	a0,a0,-82 # 7310 <malloc+0x13d2>
    336a:	00003097          	auipc	ra,0x3
    336e:	b18080e7          	jalr	-1256(ra) # 5e82 <printf>
    exit(1);
    3372:	4505                	li	a0,1
    3374:	00002097          	auipc	ra,0x2
    3378:	7a0080e7          	jalr	1952(ra) # 5b14 <exit>

000000000000337c <subdir>:
void subdir(char *s) {
    337c:	1101                	addi	sp,sp,-32
    337e:	ec06                	sd	ra,24(sp)
    3380:	e822                	sd	s0,16(sp)
    3382:	e426                	sd	s1,8(sp)
    3384:	e04a                	sd	s2,0(sp)
    3386:	1000                	addi	s0,sp,32
    3388:	892a                	mv	s2,a0
  unlink("ff");
    338a:	00004517          	auipc	a0,0x4
    338e:	0ce50513          	addi	a0,a0,206 # 7458 <malloc+0x151a>
    3392:	00002097          	auipc	ra,0x2
    3396:	7d2080e7          	jalr	2002(ra) # 5b64 <unlink>
  if (mkdir("dd") != 0) {
    339a:	00004517          	auipc	a0,0x4
    339e:	f8e50513          	addi	a0,a0,-114 # 7328 <malloc+0x13ea>
    33a2:	00002097          	auipc	ra,0x2
    33a6:	7da080e7          	jalr	2010(ra) # 5b7c <mkdir>
    33aa:	38051663          	bnez	a0,3736 <subdir+0x3ba>
  fd = open("dd/ff", O_CREATE | O_RDWR);
    33ae:	20200593          	li	a1,514
    33b2:	00004517          	auipc	a0,0x4
    33b6:	f9650513          	addi	a0,a0,-106 # 7348 <malloc+0x140a>
    33ba:	00002097          	auipc	ra,0x2
    33be:	79a080e7          	jalr	1946(ra) # 5b54 <open>
    33c2:	84aa                	mv	s1,a0
  if (fd < 0) {
    33c4:	38054763          	bltz	a0,3752 <subdir+0x3d6>
  write(fd, "ff", 2);
    33c8:	4609                	li	a2,2
    33ca:	00004597          	auipc	a1,0x4
    33ce:	08e58593          	addi	a1,a1,142 # 7458 <malloc+0x151a>
    33d2:	00002097          	auipc	ra,0x2
    33d6:	762080e7          	jalr	1890(ra) # 5b34 <write>
  close(fd);
    33da:	8526                	mv	a0,s1
    33dc:	00002097          	auipc	ra,0x2
    33e0:	760080e7          	jalr	1888(ra) # 5b3c <close>
  if (unlink("dd") >= 0) {
    33e4:	00004517          	auipc	a0,0x4
    33e8:	f4450513          	addi	a0,a0,-188 # 7328 <malloc+0x13ea>
    33ec:	00002097          	auipc	ra,0x2
    33f0:	778080e7          	jalr	1912(ra) # 5b64 <unlink>
    33f4:	36055d63          	bgez	a0,376e <subdir+0x3f2>
  if (mkdir("/dd/dd") != 0) {
    33f8:	00004517          	auipc	a0,0x4
    33fc:	fa850513          	addi	a0,a0,-88 # 73a0 <malloc+0x1462>
    3400:	00002097          	auipc	ra,0x2
    3404:	77c080e7          	jalr	1916(ra) # 5b7c <mkdir>
    3408:	38051163          	bnez	a0,378a <subdir+0x40e>
  fd = open("dd/dd/ff", O_CREATE | O_RDWR);
    340c:	20200593          	li	a1,514
    3410:	00004517          	auipc	a0,0x4
    3414:	fb850513          	addi	a0,a0,-72 # 73c8 <malloc+0x148a>
    3418:	00002097          	auipc	ra,0x2
    341c:	73c080e7          	jalr	1852(ra) # 5b54 <open>
    3420:	84aa                	mv	s1,a0
  if (fd < 0) {
    3422:	38054263          	bltz	a0,37a6 <subdir+0x42a>
  write(fd, "FF", 2);
    3426:	4609                	li	a2,2
    3428:	00004597          	auipc	a1,0x4
    342c:	fd058593          	addi	a1,a1,-48 # 73f8 <malloc+0x14ba>
    3430:	00002097          	auipc	ra,0x2
    3434:	704080e7          	jalr	1796(ra) # 5b34 <write>
  close(fd);
    3438:	8526                	mv	a0,s1
    343a:	00002097          	auipc	ra,0x2
    343e:	702080e7          	jalr	1794(ra) # 5b3c <close>
  fd = open("dd/dd/../ff", 0);
    3442:	4581                	li	a1,0
    3444:	00004517          	auipc	a0,0x4
    3448:	fbc50513          	addi	a0,a0,-68 # 7400 <malloc+0x14c2>
    344c:	00002097          	auipc	ra,0x2
    3450:	708080e7          	jalr	1800(ra) # 5b54 <open>
    3454:	84aa                	mv	s1,a0
  if (fd < 0) {
    3456:	36054663          	bltz	a0,37c2 <subdir+0x446>
  cc = read(fd, buf, sizeof(buf));
    345a:	660d                	lui	a2,0x3
    345c:	0000a597          	auipc	a1,0xa
    3460:	ffc58593          	addi	a1,a1,-4 # d458 <buf>
    3464:	00002097          	auipc	ra,0x2
    3468:	6c8080e7          	jalr	1736(ra) # 5b2c <read>
  if (cc != 2 || buf[0] != 'f') {
    346c:	4789                	li	a5,2
    346e:	36f51863          	bne	a0,a5,37de <subdir+0x462>
    3472:	0000a717          	auipc	a4,0xa
    3476:	fe674703          	lbu	a4,-26(a4) # d458 <buf>
    347a:	06600793          	li	a5,102
    347e:	36f71063          	bne	a4,a5,37de <subdir+0x462>
  close(fd);
    3482:	8526                	mv	a0,s1
    3484:	00002097          	auipc	ra,0x2
    3488:	6b8080e7          	jalr	1720(ra) # 5b3c <close>
  if (link("dd/dd/ff", "dd/dd/ffff") != 0) {
    348c:	00004597          	auipc	a1,0x4
    3490:	fc458593          	addi	a1,a1,-60 # 7450 <malloc+0x1512>
    3494:	00004517          	auipc	a0,0x4
    3498:	f3450513          	addi	a0,a0,-204 # 73c8 <malloc+0x148a>
    349c:	00002097          	auipc	ra,0x2
    34a0:	6d8080e7          	jalr	1752(ra) # 5b74 <link>
    34a4:	34051b63          	bnez	a0,37fa <subdir+0x47e>
  if (unlink("dd/dd/ff") != 0) {
    34a8:	00004517          	auipc	a0,0x4
    34ac:	f2050513          	addi	a0,a0,-224 # 73c8 <malloc+0x148a>
    34b0:	00002097          	auipc	ra,0x2
    34b4:	6b4080e7          	jalr	1716(ra) # 5b64 <unlink>
    34b8:	34051f63          	bnez	a0,3816 <subdir+0x49a>
  if (open("dd/dd/ff", O_RDONLY) >= 0) {
    34bc:	4581                	li	a1,0
    34be:	00004517          	auipc	a0,0x4
    34c2:	f0a50513          	addi	a0,a0,-246 # 73c8 <malloc+0x148a>
    34c6:	00002097          	auipc	ra,0x2
    34ca:	68e080e7          	jalr	1678(ra) # 5b54 <open>
    34ce:	36055263          	bgez	a0,3832 <subdir+0x4b6>
  if (chdir("dd") != 0) {
    34d2:	00004517          	auipc	a0,0x4
    34d6:	e5650513          	addi	a0,a0,-426 # 7328 <malloc+0x13ea>
    34da:	00002097          	auipc	ra,0x2
    34de:	6aa080e7          	jalr	1706(ra) # 5b84 <chdir>
    34e2:	36051663          	bnez	a0,384e <subdir+0x4d2>
  if (chdir("dd/../../dd") != 0) {
    34e6:	00004517          	auipc	a0,0x4
    34ea:	00250513          	addi	a0,a0,2 # 74e8 <malloc+0x15aa>
    34ee:	00002097          	auipc	ra,0x2
    34f2:	696080e7          	jalr	1686(ra) # 5b84 <chdir>
    34f6:	36051a63          	bnez	a0,386a <subdir+0x4ee>
  if (chdir("dd/../../../dd") != 0) {
    34fa:	00004517          	auipc	a0,0x4
    34fe:	01e50513          	addi	a0,a0,30 # 7518 <malloc+0x15da>
    3502:	00002097          	auipc	ra,0x2
    3506:	682080e7          	jalr	1666(ra) # 5b84 <chdir>
    350a:	36051e63          	bnez	a0,3886 <subdir+0x50a>
  if (chdir("./..") != 0) {
    350e:	00004517          	auipc	a0,0x4
    3512:	03a50513          	addi	a0,a0,58 # 7548 <malloc+0x160a>
    3516:	00002097          	auipc	ra,0x2
    351a:	66e080e7          	jalr	1646(ra) # 5b84 <chdir>
    351e:	38051263          	bnez	a0,38a2 <subdir+0x526>
  fd = open("dd/dd/ffff", 0);
    3522:	4581                	li	a1,0
    3524:	00004517          	auipc	a0,0x4
    3528:	f2c50513          	addi	a0,a0,-212 # 7450 <malloc+0x1512>
    352c:	00002097          	auipc	ra,0x2
    3530:	628080e7          	jalr	1576(ra) # 5b54 <open>
    3534:	84aa                	mv	s1,a0
  if (fd < 0) {
    3536:	38054463          	bltz	a0,38be <subdir+0x542>
  if (read(fd, buf, sizeof(buf)) != 2) {
    353a:	660d                	lui	a2,0x3
    353c:	0000a597          	auipc	a1,0xa
    3540:	f1c58593          	addi	a1,a1,-228 # d458 <buf>
    3544:	00002097          	auipc	ra,0x2
    3548:	5e8080e7          	jalr	1512(ra) # 5b2c <read>
    354c:	4789                	li	a5,2
    354e:	38f51663          	bne	a0,a5,38da <subdir+0x55e>
  close(fd);
    3552:	8526                	mv	a0,s1
    3554:	00002097          	auipc	ra,0x2
    3558:	5e8080e7          	jalr	1512(ra) # 5b3c <close>
  if (open("dd/dd/ff", O_RDONLY) >= 0) {
    355c:	4581                	li	a1,0
    355e:	00004517          	auipc	a0,0x4
    3562:	e6a50513          	addi	a0,a0,-406 # 73c8 <malloc+0x148a>
    3566:	00002097          	auipc	ra,0x2
    356a:	5ee080e7          	jalr	1518(ra) # 5b54 <open>
    356e:	38055463          	bgez	a0,38f6 <subdir+0x57a>
  if (open("dd/ff/ff", O_CREATE | O_RDWR) >= 0) {
    3572:	20200593          	li	a1,514
    3576:	00004517          	auipc	a0,0x4
    357a:	06250513          	addi	a0,a0,98 # 75d8 <malloc+0x169a>
    357e:	00002097          	auipc	ra,0x2
    3582:	5d6080e7          	jalr	1494(ra) # 5b54 <open>
    3586:	38055663          	bgez	a0,3912 <subdir+0x596>
  if (open("dd/xx/ff", O_CREATE | O_RDWR) >= 0) {
    358a:	20200593          	li	a1,514
    358e:	00004517          	auipc	a0,0x4
    3592:	07a50513          	addi	a0,a0,122 # 7608 <malloc+0x16ca>
    3596:	00002097          	auipc	ra,0x2
    359a:	5be080e7          	jalr	1470(ra) # 5b54 <open>
    359e:	38055863          	bgez	a0,392e <subdir+0x5b2>
  if (open("dd", O_CREATE) >= 0) {
    35a2:	20000593          	li	a1,512
    35a6:	00004517          	auipc	a0,0x4
    35aa:	d8250513          	addi	a0,a0,-638 # 7328 <malloc+0x13ea>
    35ae:	00002097          	auipc	ra,0x2
    35b2:	5a6080e7          	jalr	1446(ra) # 5b54 <open>
    35b6:	38055a63          	bgez	a0,394a <subdir+0x5ce>
  if (open("dd", O_RDWR) >= 0) {
    35ba:	4589                	li	a1,2
    35bc:	00004517          	auipc	a0,0x4
    35c0:	d6c50513          	addi	a0,a0,-660 # 7328 <malloc+0x13ea>
    35c4:	00002097          	auipc	ra,0x2
    35c8:	590080e7          	jalr	1424(ra) # 5b54 <open>
    35cc:	38055d63          	bgez	a0,3966 <subdir+0x5ea>
  if (open("dd", O_WRONLY) >= 0) {
    35d0:	4585                	li	a1,1
    35d2:	00004517          	auipc	a0,0x4
    35d6:	d5650513          	addi	a0,a0,-682 # 7328 <malloc+0x13ea>
    35da:	00002097          	auipc	ra,0x2
    35de:	57a080e7          	jalr	1402(ra) # 5b54 <open>
    35e2:	3a055063          	bgez	a0,3982 <subdir+0x606>
  if (link("dd/ff/ff", "dd/dd/xx") == 0) {
    35e6:	00004597          	auipc	a1,0x4
    35ea:	0b258593          	addi	a1,a1,178 # 7698 <malloc+0x175a>
    35ee:	00004517          	auipc	a0,0x4
    35f2:	fea50513          	addi	a0,a0,-22 # 75d8 <malloc+0x169a>
    35f6:	00002097          	auipc	ra,0x2
    35fa:	57e080e7          	jalr	1406(ra) # 5b74 <link>
    35fe:	3a050063          	beqz	a0,399e <subdir+0x622>
  if (link("dd/xx/ff", "dd/dd/xx") == 0) {
    3602:	00004597          	auipc	a1,0x4
    3606:	09658593          	addi	a1,a1,150 # 7698 <malloc+0x175a>
    360a:	00004517          	auipc	a0,0x4
    360e:	ffe50513          	addi	a0,a0,-2 # 7608 <malloc+0x16ca>
    3612:	00002097          	auipc	ra,0x2
    3616:	562080e7          	jalr	1378(ra) # 5b74 <link>
    361a:	3a050063          	beqz	a0,39ba <subdir+0x63e>
  if (link("dd/ff", "dd/dd/ffff") == 0) {
    361e:	00004597          	auipc	a1,0x4
    3622:	e3258593          	addi	a1,a1,-462 # 7450 <malloc+0x1512>
    3626:	00004517          	auipc	a0,0x4
    362a:	d2250513          	addi	a0,a0,-734 # 7348 <malloc+0x140a>
    362e:	00002097          	auipc	ra,0x2
    3632:	546080e7          	jalr	1350(ra) # 5b74 <link>
    3636:	3a050063          	beqz	a0,39d6 <subdir+0x65a>
  if (mkdir("dd/ff/ff") == 0) {
    363a:	00004517          	auipc	a0,0x4
    363e:	f9e50513          	addi	a0,a0,-98 # 75d8 <malloc+0x169a>
    3642:	00002097          	auipc	ra,0x2
    3646:	53a080e7          	jalr	1338(ra) # 5b7c <mkdir>
    364a:	3a050463          	beqz	a0,39f2 <subdir+0x676>
  if (mkdir("dd/xx/ff") == 0) {
    364e:	00004517          	auipc	a0,0x4
    3652:	fba50513          	addi	a0,a0,-70 # 7608 <malloc+0x16ca>
    3656:	00002097          	auipc	ra,0x2
    365a:	526080e7          	jalr	1318(ra) # 5b7c <mkdir>
    365e:	3a050863          	beqz	a0,3a0e <subdir+0x692>
  if (mkdir("dd/dd/ffff") == 0) {
    3662:	00004517          	auipc	a0,0x4
    3666:	dee50513          	addi	a0,a0,-530 # 7450 <malloc+0x1512>
    366a:	00002097          	auipc	ra,0x2
    366e:	512080e7          	jalr	1298(ra) # 5b7c <mkdir>
    3672:	3a050c63          	beqz	a0,3a2a <subdir+0x6ae>
  if (unlink("dd/xx/ff") == 0) {
    3676:	00004517          	auipc	a0,0x4
    367a:	f9250513          	addi	a0,a0,-110 # 7608 <malloc+0x16ca>
    367e:	00002097          	auipc	ra,0x2
    3682:	4e6080e7          	jalr	1254(ra) # 5b64 <unlink>
    3686:	3c050063          	beqz	a0,3a46 <subdir+0x6ca>
  if (unlink("dd/ff/ff") == 0) {
    368a:	00004517          	auipc	a0,0x4
    368e:	f4e50513          	addi	a0,a0,-178 # 75d8 <malloc+0x169a>
    3692:	00002097          	auipc	ra,0x2
    3696:	4d2080e7          	jalr	1234(ra) # 5b64 <unlink>
    369a:	3c050463          	beqz	a0,3a62 <subdir+0x6e6>
  if (chdir("dd/ff") == 0) {
    369e:	00004517          	auipc	a0,0x4
    36a2:	caa50513          	addi	a0,a0,-854 # 7348 <malloc+0x140a>
    36a6:	00002097          	auipc	ra,0x2
    36aa:	4de080e7          	jalr	1246(ra) # 5b84 <chdir>
    36ae:	3c050863          	beqz	a0,3a7e <subdir+0x702>
  if (chdir("dd/xx") == 0) {
    36b2:	00004517          	auipc	a0,0x4
    36b6:	13650513          	addi	a0,a0,310 # 77e8 <malloc+0x18aa>
    36ba:	00002097          	auipc	ra,0x2
    36be:	4ca080e7          	jalr	1226(ra) # 5b84 <chdir>
    36c2:	3c050c63          	beqz	a0,3a9a <subdir+0x71e>
  if (unlink("dd/dd/ffff") != 0) {
    36c6:	00004517          	auipc	a0,0x4
    36ca:	d8a50513          	addi	a0,a0,-630 # 7450 <malloc+0x1512>
    36ce:	00002097          	auipc	ra,0x2
    36d2:	496080e7          	jalr	1174(ra) # 5b64 <unlink>
    36d6:	3e051063          	bnez	a0,3ab6 <subdir+0x73a>
  if (unlink("dd/ff") != 0) {
    36da:	00004517          	auipc	a0,0x4
    36de:	c6e50513          	addi	a0,a0,-914 # 7348 <malloc+0x140a>
    36e2:	00002097          	auipc	ra,0x2
    36e6:	482080e7          	jalr	1154(ra) # 5b64 <unlink>
    36ea:	3e051463          	bnez	a0,3ad2 <subdir+0x756>
  if (unlink("dd") == 0) {
    36ee:	00004517          	auipc	a0,0x4
    36f2:	c3a50513          	addi	a0,a0,-966 # 7328 <malloc+0x13ea>
    36f6:	00002097          	auipc	ra,0x2
    36fa:	46e080e7          	jalr	1134(ra) # 5b64 <unlink>
    36fe:	3e050863          	beqz	a0,3aee <subdir+0x772>
  if (unlink("dd/dd") < 0) {
    3702:	00004517          	auipc	a0,0x4
    3706:	15650513          	addi	a0,a0,342 # 7858 <malloc+0x191a>
    370a:	00002097          	auipc	ra,0x2
    370e:	45a080e7          	jalr	1114(ra) # 5b64 <unlink>
    3712:	3e054c63          	bltz	a0,3b0a <subdir+0x78e>
  if (unlink("dd") < 0) {
    3716:	00004517          	auipc	a0,0x4
    371a:	c1250513          	addi	a0,a0,-1006 # 7328 <malloc+0x13ea>
    371e:	00002097          	auipc	ra,0x2
    3722:	446080e7          	jalr	1094(ra) # 5b64 <unlink>
    3726:	40054063          	bltz	a0,3b26 <subdir+0x7aa>
}
    372a:	60e2                	ld	ra,24(sp)
    372c:	6442                	ld	s0,16(sp)
    372e:	64a2                	ld	s1,8(sp)
    3730:	6902                	ld	s2,0(sp)
    3732:	6105                	addi	sp,sp,32
    3734:	8082                	ret
    printf("%s: mkdir dd failed\n", s);
    3736:	85ca                	mv	a1,s2
    3738:	00004517          	auipc	a0,0x4
    373c:	bf850513          	addi	a0,a0,-1032 # 7330 <malloc+0x13f2>
    3740:	00002097          	auipc	ra,0x2
    3744:	742080e7          	jalr	1858(ra) # 5e82 <printf>
    exit(1);
    3748:	4505                	li	a0,1
    374a:	00002097          	auipc	ra,0x2
    374e:	3ca080e7          	jalr	970(ra) # 5b14 <exit>
    printf("%s: create dd/ff failed\n", s);
    3752:	85ca                	mv	a1,s2
    3754:	00004517          	auipc	a0,0x4
    3758:	bfc50513          	addi	a0,a0,-1028 # 7350 <malloc+0x1412>
    375c:	00002097          	auipc	ra,0x2
    3760:	726080e7          	jalr	1830(ra) # 5e82 <printf>
    exit(1);
    3764:	4505                	li	a0,1
    3766:	00002097          	auipc	ra,0x2
    376a:	3ae080e7          	jalr	942(ra) # 5b14 <exit>
    printf("%s: unlink dd (non-empty dir) succeeded!\n", s);
    376e:	85ca                	mv	a1,s2
    3770:	00004517          	auipc	a0,0x4
    3774:	c0050513          	addi	a0,a0,-1024 # 7370 <malloc+0x1432>
    3778:	00002097          	auipc	ra,0x2
    377c:	70a080e7          	jalr	1802(ra) # 5e82 <printf>
    exit(1);
    3780:	4505                	li	a0,1
    3782:	00002097          	auipc	ra,0x2
    3786:	392080e7          	jalr	914(ra) # 5b14 <exit>
    printf("subdir mkdir dd/dd failed\n", s);
    378a:	85ca                	mv	a1,s2
    378c:	00004517          	auipc	a0,0x4
    3790:	c1c50513          	addi	a0,a0,-996 # 73a8 <malloc+0x146a>
    3794:	00002097          	auipc	ra,0x2
    3798:	6ee080e7          	jalr	1774(ra) # 5e82 <printf>
    exit(1);
    379c:	4505                	li	a0,1
    379e:	00002097          	auipc	ra,0x2
    37a2:	376080e7          	jalr	886(ra) # 5b14 <exit>
    printf("%s: create dd/dd/ff failed\n", s);
    37a6:	85ca                	mv	a1,s2
    37a8:	00004517          	auipc	a0,0x4
    37ac:	c3050513          	addi	a0,a0,-976 # 73d8 <malloc+0x149a>
    37b0:	00002097          	auipc	ra,0x2
    37b4:	6d2080e7          	jalr	1746(ra) # 5e82 <printf>
    exit(1);
    37b8:	4505                	li	a0,1
    37ba:	00002097          	auipc	ra,0x2
    37be:	35a080e7          	jalr	858(ra) # 5b14 <exit>
    printf("%s: open dd/dd/../ff failed\n", s);
    37c2:	85ca                	mv	a1,s2
    37c4:	00004517          	auipc	a0,0x4
    37c8:	c4c50513          	addi	a0,a0,-948 # 7410 <malloc+0x14d2>
    37cc:	00002097          	auipc	ra,0x2
    37d0:	6b6080e7          	jalr	1718(ra) # 5e82 <printf>
    exit(1);
    37d4:	4505                	li	a0,1
    37d6:	00002097          	auipc	ra,0x2
    37da:	33e080e7          	jalr	830(ra) # 5b14 <exit>
    printf("%s: dd/dd/../ff wrong content\n", s);
    37de:	85ca                	mv	a1,s2
    37e0:	00004517          	auipc	a0,0x4
    37e4:	c5050513          	addi	a0,a0,-944 # 7430 <malloc+0x14f2>
    37e8:	00002097          	auipc	ra,0x2
    37ec:	69a080e7          	jalr	1690(ra) # 5e82 <printf>
    exit(1);
    37f0:	4505                	li	a0,1
    37f2:	00002097          	auipc	ra,0x2
    37f6:	322080e7          	jalr	802(ra) # 5b14 <exit>
    printf("link dd/dd/ff dd/dd/ffff failed\n", s);
    37fa:	85ca                	mv	a1,s2
    37fc:	00004517          	auipc	a0,0x4
    3800:	c6450513          	addi	a0,a0,-924 # 7460 <malloc+0x1522>
    3804:	00002097          	auipc	ra,0x2
    3808:	67e080e7          	jalr	1662(ra) # 5e82 <printf>
    exit(1);
    380c:	4505                	li	a0,1
    380e:	00002097          	auipc	ra,0x2
    3812:	306080e7          	jalr	774(ra) # 5b14 <exit>
    printf("%s: unlink dd/dd/ff failed\n", s);
    3816:	85ca                	mv	a1,s2
    3818:	00004517          	auipc	a0,0x4
    381c:	c7050513          	addi	a0,a0,-912 # 7488 <malloc+0x154a>
    3820:	00002097          	auipc	ra,0x2
    3824:	662080e7          	jalr	1634(ra) # 5e82 <printf>
    exit(1);
    3828:	4505                	li	a0,1
    382a:	00002097          	auipc	ra,0x2
    382e:	2ea080e7          	jalr	746(ra) # 5b14 <exit>
    printf("%s: open (unlinked) dd/dd/ff succeeded\n", s);
    3832:	85ca                	mv	a1,s2
    3834:	00004517          	auipc	a0,0x4
    3838:	c7450513          	addi	a0,a0,-908 # 74a8 <malloc+0x156a>
    383c:	00002097          	auipc	ra,0x2
    3840:	646080e7          	jalr	1606(ra) # 5e82 <printf>
    exit(1);
    3844:	4505                	li	a0,1
    3846:	00002097          	auipc	ra,0x2
    384a:	2ce080e7          	jalr	718(ra) # 5b14 <exit>
    printf("%s: chdir dd failed\n", s);
    384e:	85ca                	mv	a1,s2
    3850:	00004517          	auipc	a0,0x4
    3854:	c8050513          	addi	a0,a0,-896 # 74d0 <malloc+0x1592>
    3858:	00002097          	auipc	ra,0x2
    385c:	62a080e7          	jalr	1578(ra) # 5e82 <printf>
    exit(1);
    3860:	4505                	li	a0,1
    3862:	00002097          	auipc	ra,0x2
    3866:	2b2080e7          	jalr	690(ra) # 5b14 <exit>
    printf("%s: chdir dd/../../dd failed\n", s);
    386a:	85ca                	mv	a1,s2
    386c:	00004517          	auipc	a0,0x4
    3870:	c8c50513          	addi	a0,a0,-884 # 74f8 <malloc+0x15ba>
    3874:	00002097          	auipc	ra,0x2
    3878:	60e080e7          	jalr	1550(ra) # 5e82 <printf>
    exit(1);
    387c:	4505                	li	a0,1
    387e:	00002097          	auipc	ra,0x2
    3882:	296080e7          	jalr	662(ra) # 5b14 <exit>
    printf("chdir dd/../../dd failed\n", s);
    3886:	85ca                	mv	a1,s2
    3888:	00004517          	auipc	a0,0x4
    388c:	ca050513          	addi	a0,a0,-864 # 7528 <malloc+0x15ea>
    3890:	00002097          	auipc	ra,0x2
    3894:	5f2080e7          	jalr	1522(ra) # 5e82 <printf>
    exit(1);
    3898:	4505                	li	a0,1
    389a:	00002097          	auipc	ra,0x2
    389e:	27a080e7          	jalr	634(ra) # 5b14 <exit>
    printf("%s: chdir ./.. failed\n", s);
    38a2:	85ca                	mv	a1,s2
    38a4:	00004517          	auipc	a0,0x4
    38a8:	cac50513          	addi	a0,a0,-852 # 7550 <malloc+0x1612>
